
ctarget:     file format elf64-x86-64


Disassembly of section .init:

0000000000001000 <_init>:
    1000:	f3 0f 1e fa          	endbr64 
    1004:	48 83 ec 08          	sub    $0x8,%rsp
    1008:	48 8b 05 d9 5f 00 00 	mov    0x5fd9(%rip),%rax        # 6fe8 <__gmon_start__>
    100f:	48 85 c0             	test   %rax,%rax
    1012:	74 02                	je     1016 <_init+0x16>
    1014:	ff d0                	callq  *%rax
    1016:	48 83 c4 08          	add    $0x8,%rsp
    101a:	c3                   	retq   

Disassembly of section .plt:

0000000000001020 <.plt>:
    1020:	ff 35 9a 5e 00 00    	pushq  0x5e9a(%rip)        # 6ec0 <_GLOBAL_OFFSET_TABLE_+0x8>
    1026:	f2 ff 25 9b 5e 00 00 	bnd jmpq *0x5e9b(%rip)        # 6ec8 <_GLOBAL_OFFSET_TABLE_+0x10>
    102d:	0f 1f 00             	nopl   (%rax)
    1030:	f3 0f 1e fa          	endbr64 
    1034:	68 00 00 00 00       	pushq  $0x0
    1039:	f2 e9 e1 ff ff ff    	bnd jmpq 1020 <.plt>
    103f:	90                   	nop
    1040:	f3 0f 1e fa          	endbr64 
    1044:	68 01 00 00 00       	pushq  $0x1
    1049:	f2 e9 d1 ff ff ff    	bnd jmpq 1020 <.plt>
    104f:	90                   	nop
    1050:	f3 0f 1e fa          	endbr64 
    1054:	68 02 00 00 00       	pushq  $0x2
    1059:	f2 e9 c1 ff ff ff    	bnd jmpq 1020 <.plt>
    105f:	90                   	nop
    1060:	f3 0f 1e fa          	endbr64 
    1064:	68 03 00 00 00       	pushq  $0x3
    1069:	f2 e9 b1 ff ff ff    	bnd jmpq 1020 <.plt>
    106f:	90                   	nop
    1070:	f3 0f 1e fa          	endbr64 
    1074:	68 04 00 00 00       	pushq  $0x4
    1079:	f2 e9 a1 ff ff ff    	bnd jmpq 1020 <.plt>
    107f:	90                   	nop
    1080:	f3 0f 1e fa          	endbr64 
    1084:	68 05 00 00 00       	pushq  $0x5
    1089:	f2 e9 91 ff ff ff    	bnd jmpq 1020 <.plt>
    108f:	90                   	nop
    1090:	f3 0f 1e fa          	endbr64 
    1094:	68 06 00 00 00       	pushq  $0x6
    1099:	f2 e9 81 ff ff ff    	bnd jmpq 1020 <.plt>
    109f:	90                   	nop
    10a0:	f3 0f 1e fa          	endbr64 
    10a4:	68 07 00 00 00       	pushq  $0x7
    10a9:	f2 e9 71 ff ff ff    	bnd jmpq 1020 <.plt>
    10af:	90                   	nop
    10b0:	f3 0f 1e fa          	endbr64 
    10b4:	68 08 00 00 00       	pushq  $0x8
    10b9:	f2 e9 61 ff ff ff    	bnd jmpq 1020 <.plt>
    10bf:	90                   	nop
    10c0:	f3 0f 1e fa          	endbr64 
    10c4:	68 09 00 00 00       	pushq  $0x9
    10c9:	f2 e9 51 ff ff ff    	bnd jmpq 1020 <.plt>
    10cf:	90                   	nop
    10d0:	f3 0f 1e fa          	endbr64 
    10d4:	68 0a 00 00 00       	pushq  $0xa
    10d9:	f2 e9 41 ff ff ff    	bnd jmpq 1020 <.plt>
    10df:	90                   	nop
    10e0:	f3 0f 1e fa          	endbr64 
    10e4:	68 0b 00 00 00       	pushq  $0xb
    10e9:	f2 e9 31 ff ff ff    	bnd jmpq 1020 <.plt>
    10ef:	90                   	nop
    10f0:	f3 0f 1e fa          	endbr64 
    10f4:	68 0c 00 00 00       	pushq  $0xc
    10f9:	f2 e9 21 ff ff ff    	bnd jmpq 1020 <.plt>
    10ff:	90                   	nop
    1100:	f3 0f 1e fa          	endbr64 
    1104:	68 0d 00 00 00       	pushq  $0xd
    1109:	f2 e9 11 ff ff ff    	bnd jmpq 1020 <.plt>
    110f:	90                   	nop
    1110:	f3 0f 1e fa          	endbr64 
    1114:	68 0e 00 00 00       	pushq  $0xe
    1119:	f2 e9 01 ff ff ff    	bnd jmpq 1020 <.plt>
    111f:	90                   	nop
    1120:	f3 0f 1e fa          	endbr64 
    1124:	68 0f 00 00 00       	pushq  $0xf
    1129:	f2 e9 f1 fe ff ff    	bnd jmpq 1020 <.plt>
    112f:	90                   	nop
    1130:	f3 0f 1e fa          	endbr64 
    1134:	68 10 00 00 00       	pushq  $0x10
    1139:	f2 e9 e1 fe ff ff    	bnd jmpq 1020 <.plt>
    113f:	90                   	nop
    1140:	f3 0f 1e fa          	endbr64 
    1144:	68 11 00 00 00       	pushq  $0x11
    1149:	f2 e9 d1 fe ff ff    	bnd jmpq 1020 <.plt>
    114f:	90                   	nop
    1150:	f3 0f 1e fa          	endbr64 
    1154:	68 12 00 00 00       	pushq  $0x12
    1159:	f2 e9 c1 fe ff ff    	bnd jmpq 1020 <.plt>
    115f:	90                   	nop
    1160:	f3 0f 1e fa          	endbr64 
    1164:	68 13 00 00 00       	pushq  $0x13
    1169:	f2 e9 b1 fe ff ff    	bnd jmpq 1020 <.plt>
    116f:	90                   	nop
    1170:	f3 0f 1e fa          	endbr64 
    1174:	68 14 00 00 00       	pushq  $0x14
    1179:	f2 e9 a1 fe ff ff    	bnd jmpq 1020 <.plt>
    117f:	90                   	nop
    1180:	f3 0f 1e fa          	endbr64 
    1184:	68 15 00 00 00       	pushq  $0x15
    1189:	f2 e9 91 fe ff ff    	bnd jmpq 1020 <.plt>
    118f:	90                   	nop
    1190:	f3 0f 1e fa          	endbr64 
    1194:	68 16 00 00 00       	pushq  $0x16
    1199:	f2 e9 81 fe ff ff    	bnd jmpq 1020 <.plt>
    119f:	90                   	nop
    11a0:	f3 0f 1e fa          	endbr64 
    11a4:	68 17 00 00 00       	pushq  $0x17
    11a9:	f2 e9 71 fe ff ff    	bnd jmpq 1020 <.plt>
    11af:	90                   	nop
    11b0:	f3 0f 1e fa          	endbr64 
    11b4:	68 18 00 00 00       	pushq  $0x18
    11b9:	f2 e9 61 fe ff ff    	bnd jmpq 1020 <.plt>
    11bf:	90                   	nop
    11c0:	f3 0f 1e fa          	endbr64 
    11c4:	68 19 00 00 00       	pushq  $0x19
    11c9:	f2 e9 51 fe ff ff    	bnd jmpq 1020 <.plt>
    11cf:	90                   	nop
    11d0:	f3 0f 1e fa          	endbr64 
    11d4:	68 1a 00 00 00       	pushq  $0x1a
    11d9:	f2 e9 41 fe ff ff    	bnd jmpq 1020 <.plt>
    11df:	90                   	nop
    11e0:	f3 0f 1e fa          	endbr64 
    11e4:	68 1b 00 00 00       	pushq  $0x1b
    11e9:	f2 e9 31 fe ff ff    	bnd jmpq 1020 <.plt>
    11ef:	90                   	nop
    11f0:	f3 0f 1e fa          	endbr64 
    11f4:	68 1c 00 00 00       	pushq  $0x1c
    11f9:	f2 e9 21 fe ff ff    	bnd jmpq 1020 <.plt>
    11ff:	90                   	nop
    1200:	f3 0f 1e fa          	endbr64 
    1204:	68 1d 00 00 00       	pushq  $0x1d
    1209:	f2 e9 11 fe ff ff    	bnd jmpq 1020 <.plt>
    120f:	90                   	nop
    1210:	f3 0f 1e fa          	endbr64 
    1214:	68 1e 00 00 00       	pushq  $0x1e
    1219:	f2 e9 01 fe ff ff    	bnd jmpq 1020 <.plt>
    121f:	90                   	nop
    1220:	f3 0f 1e fa          	endbr64 
    1224:	68 1f 00 00 00       	pushq  $0x1f
    1229:	f2 e9 f1 fd ff ff    	bnd jmpq 1020 <.plt>
    122f:	90                   	nop
    1230:	f3 0f 1e fa          	endbr64 
    1234:	68 20 00 00 00       	pushq  $0x20
    1239:	f2 e9 e1 fd ff ff    	bnd jmpq 1020 <.plt>
    123f:	90                   	nop

Disassembly of section .plt.got:

0000000000001240 <__cxa_finalize@plt>:
    1240:	f3 0f 1e fa          	endbr64 
    1244:	f2 ff 25 ad 5d 00 00 	bnd jmpq *0x5dad(%rip)        # 6ff8 <__cxa_finalize@GLIBC_2.2.5>
    124b:	0f 1f 44 00 00       	nopl   0x0(%rax,%rax,1)

Disassembly of section .plt.sec:

0000000000001250 <strcasecmp@plt>:
    1250:	f3 0f 1e fa          	endbr64 
    1254:	f2 ff 25 75 5c 00 00 	bnd jmpq *0x5c75(%rip)        # 6ed0 <strcasecmp@GLIBC_2.2.5>
    125b:	0f 1f 44 00 00       	nopl   0x0(%rax,%rax,1)

0000000000001260 <__errno_location@plt>:
    1260:	f3 0f 1e fa          	endbr64 
    1264:	f2 ff 25 6d 5c 00 00 	bnd jmpq *0x5c6d(%rip)        # 6ed8 <__errno_location@GLIBC_2.2.5>
    126b:	0f 1f 44 00 00       	nopl   0x0(%rax,%rax,1)

0000000000001270 <srandom@plt>:
    1270:	f3 0f 1e fa          	endbr64 
    1274:	f2 ff 25 65 5c 00 00 	bnd jmpq *0x5c65(%rip)        # 6ee0 <srandom@GLIBC_2.2.5>
    127b:	0f 1f 44 00 00       	nopl   0x0(%rax,%rax,1)

0000000000001280 <strncmp@plt>:
    1280:	f3 0f 1e fa          	endbr64 
    1284:	f2 ff 25 5d 5c 00 00 	bnd jmpq *0x5c5d(%rip)        # 6ee8 <strncmp@GLIBC_2.2.5>
    128b:	0f 1f 44 00 00       	nopl   0x0(%rax,%rax,1)

0000000000001290 <strcpy@plt>:
    1290:	f3 0f 1e fa          	endbr64 
    1294:	f2 ff 25 55 5c 00 00 	bnd jmpq *0x5c55(%rip)        # 6ef0 <strcpy@GLIBC_2.2.5>
    129b:	0f 1f 44 00 00       	nopl   0x0(%rax,%rax,1)

00000000000012a0 <puts@plt>:
    12a0:	f3 0f 1e fa          	endbr64 
    12a4:	f2 ff 25 4d 5c 00 00 	bnd jmpq *0x5c4d(%rip)        # 6ef8 <puts@GLIBC_2.2.5>
    12ab:	0f 1f 44 00 00       	nopl   0x0(%rax,%rax,1)

00000000000012b0 <write@plt>:
    12b0:	f3 0f 1e fa          	endbr64 
    12b4:	f2 ff 25 45 5c 00 00 	bnd jmpq *0x5c45(%rip)        # 6f00 <write@GLIBC_2.2.5>
    12bb:	0f 1f 44 00 00       	nopl   0x0(%rax,%rax,1)

00000000000012c0 <__stack_chk_fail@plt>:
    12c0:	f3 0f 1e fa          	endbr64 
    12c4:	f2 ff 25 3d 5c 00 00 	bnd jmpq *0x5c3d(%rip)        # 6f08 <__stack_chk_fail@GLIBC_2.4>
    12cb:	0f 1f 44 00 00       	nopl   0x0(%rax,%rax,1)

00000000000012d0 <mmap@plt>:
    12d0:	f3 0f 1e fa          	endbr64 
    12d4:	f2 ff 25 35 5c 00 00 	bnd jmpq *0x5c35(%rip)        # 6f10 <mmap@GLIBC_2.2.5>
    12db:	0f 1f 44 00 00       	nopl   0x0(%rax,%rax,1)

00000000000012e0 <memset@plt>:
    12e0:	f3 0f 1e fa          	endbr64 
    12e4:	f2 ff 25 2d 5c 00 00 	bnd jmpq *0x5c2d(%rip)        # 6f18 <memset@GLIBC_2.2.5>
    12eb:	0f 1f 44 00 00       	nopl   0x0(%rax,%rax,1)

00000000000012f0 <alarm@plt>:
    12f0:	f3 0f 1e fa          	endbr64 
    12f4:	f2 ff 25 25 5c 00 00 	bnd jmpq *0x5c25(%rip)        # 6f20 <alarm@GLIBC_2.2.5>
    12fb:	0f 1f 44 00 00       	nopl   0x0(%rax,%rax,1)

0000000000001300 <close@plt>:
    1300:	f3 0f 1e fa          	endbr64 
    1304:	f2 ff 25 1d 5c 00 00 	bnd jmpq *0x5c1d(%rip)        # 6f28 <close@GLIBC_2.2.5>
    130b:	0f 1f 44 00 00       	nopl   0x0(%rax,%rax,1)

0000000000001310 <read@plt>:
    1310:	f3 0f 1e fa          	endbr64 
    1314:	f2 ff 25 15 5c 00 00 	bnd jmpq *0x5c15(%rip)        # 6f30 <read@GLIBC_2.2.5>
    131b:	0f 1f 44 00 00       	nopl   0x0(%rax,%rax,1)

0000000000001320 <signal@plt>:
    1320:	f3 0f 1e fa          	endbr64 
    1324:	f2 ff 25 0d 5c 00 00 	bnd jmpq *0x5c0d(%rip)        # 6f38 <signal@GLIBC_2.2.5>
    132b:	0f 1f 44 00 00       	nopl   0x0(%rax,%rax,1)

0000000000001330 <gethostbyname@plt>:
    1330:	f3 0f 1e fa          	endbr64 
    1334:	f2 ff 25 05 5c 00 00 	bnd jmpq *0x5c05(%rip)        # 6f40 <gethostbyname@GLIBC_2.2.5>
    133b:	0f 1f 44 00 00       	nopl   0x0(%rax,%rax,1)

0000000000001340 <__memmove_chk@plt>:
    1340:	f3 0f 1e fa          	endbr64 
    1344:	f2 ff 25 fd 5b 00 00 	bnd jmpq *0x5bfd(%rip)        # 6f48 <__memmove_chk@GLIBC_2.3.4>
    134b:	0f 1f 44 00 00       	nopl   0x0(%rax,%rax,1)

0000000000001350 <strtol@plt>:
    1350:	f3 0f 1e fa          	endbr64 
    1354:	f2 ff 25 f5 5b 00 00 	bnd jmpq *0x5bf5(%rip)        # 6f50 <strtol@GLIBC_2.2.5>
    135b:	0f 1f 44 00 00       	nopl   0x0(%rax,%rax,1)

0000000000001360 <memcpy@plt>:
    1360:	f3 0f 1e fa          	endbr64 
    1364:	f2 ff 25 ed 5b 00 00 	bnd jmpq *0x5bed(%rip)        # 6f58 <memcpy@GLIBC_2.14>
    136b:	0f 1f 44 00 00       	nopl   0x0(%rax,%rax,1)

0000000000001370 <time@plt>:
    1370:	f3 0f 1e fa          	endbr64 
    1374:	f2 ff 25 e5 5b 00 00 	bnd jmpq *0x5be5(%rip)        # 6f60 <time@GLIBC_2.2.5>
    137b:	0f 1f 44 00 00       	nopl   0x0(%rax,%rax,1)

0000000000001380 <random@plt>:
    1380:	f3 0f 1e fa          	endbr64 
    1384:	f2 ff 25 dd 5b 00 00 	bnd jmpq *0x5bdd(%rip)        # 6f68 <random@GLIBC_2.2.5>
    138b:	0f 1f 44 00 00       	nopl   0x0(%rax,%rax,1)

0000000000001390 <__isoc99_sscanf@plt>:
    1390:	f3 0f 1e fa          	endbr64 
    1394:	f2 ff 25 d5 5b 00 00 	bnd jmpq *0x5bd5(%rip)        # 6f70 <__isoc99_sscanf@GLIBC_2.7>
    139b:	0f 1f 44 00 00       	nopl   0x0(%rax,%rax,1)

00000000000013a0 <munmap@plt>:
    13a0:	f3 0f 1e fa          	endbr64 
    13a4:	f2 ff 25 cd 5b 00 00 	bnd jmpq *0x5bcd(%rip)        # 6f78 <munmap@GLIBC_2.2.5>
    13ab:	0f 1f 44 00 00       	nopl   0x0(%rax,%rax,1)

00000000000013b0 <__printf_chk@plt>:
    13b0:	f3 0f 1e fa          	endbr64 
    13b4:	f2 ff 25 c5 5b 00 00 	bnd jmpq *0x5bc5(%rip)        # 6f80 <__printf_chk@GLIBC_2.3.4>
    13bb:	0f 1f 44 00 00       	nopl   0x0(%rax,%rax,1)

00000000000013c0 <fopen@plt>:
    13c0:	f3 0f 1e fa          	endbr64 
    13c4:	f2 ff 25 bd 5b 00 00 	bnd jmpq *0x5bbd(%rip)        # 6f88 <fopen@GLIBC_2.2.5>
    13cb:	0f 1f 44 00 00       	nopl   0x0(%rax,%rax,1)

00000000000013d0 <getopt@plt>:
    13d0:	f3 0f 1e fa          	endbr64 
    13d4:	f2 ff 25 b5 5b 00 00 	bnd jmpq *0x5bb5(%rip)        # 6f90 <getopt@GLIBC_2.2.5>
    13db:	0f 1f 44 00 00       	nopl   0x0(%rax,%rax,1)

00000000000013e0 <strtoul@plt>:
    13e0:	f3 0f 1e fa          	endbr64 
    13e4:	f2 ff 25 ad 5b 00 00 	bnd jmpq *0x5bad(%rip)        # 6f98 <strtoul@GLIBC_2.2.5>
    13eb:	0f 1f 44 00 00       	nopl   0x0(%rax,%rax,1)

00000000000013f0 <gethostname@plt>:
    13f0:	f3 0f 1e fa          	endbr64 
    13f4:	f2 ff 25 a5 5b 00 00 	bnd jmpq *0x5ba5(%rip)        # 6fa0 <gethostname@GLIBC_2.2.5>
    13fb:	0f 1f 44 00 00       	nopl   0x0(%rax,%rax,1)

0000000000001400 <exit@plt>:
    1400:	f3 0f 1e fa          	endbr64 
    1404:	f2 ff 25 9d 5b 00 00 	bnd jmpq *0x5b9d(%rip)        # 6fa8 <exit@GLIBC_2.2.5>
    140b:	0f 1f 44 00 00       	nopl   0x0(%rax,%rax,1)

0000000000001410 <connect@plt>:
    1410:	f3 0f 1e fa          	endbr64 
    1414:	f2 ff 25 95 5b 00 00 	bnd jmpq *0x5b95(%rip)        # 6fb0 <connect@GLIBC_2.2.5>
    141b:	0f 1f 44 00 00       	nopl   0x0(%rax,%rax,1)

0000000000001420 <__fprintf_chk@plt>:
    1420:	f3 0f 1e fa          	endbr64 
    1424:	f2 ff 25 8d 5b 00 00 	bnd jmpq *0x5b8d(%rip)        # 6fb8 <__fprintf_chk@GLIBC_2.3.4>
    142b:	0f 1f 44 00 00       	nopl   0x0(%rax,%rax,1)

0000000000001430 <getc@plt>:
    1430:	f3 0f 1e fa          	endbr64 
    1434:	f2 ff 25 85 5b 00 00 	bnd jmpq *0x5b85(%rip)        # 6fc0 <getc@GLIBC_2.2.5>
    143b:	0f 1f 44 00 00       	nopl   0x0(%rax,%rax,1)

0000000000001440 <__sprintf_chk@plt>:
    1440:	f3 0f 1e fa          	endbr64 
    1444:	f2 ff 25 7d 5b 00 00 	bnd jmpq *0x5b7d(%rip)        # 6fc8 <__sprintf_chk@GLIBC_2.3.4>
    144b:	0f 1f 44 00 00       	nopl   0x0(%rax,%rax,1)

0000000000001450 <socket@plt>:
    1450:	f3 0f 1e fa          	endbr64 
    1454:	f2 ff 25 75 5b 00 00 	bnd jmpq *0x5b75(%rip)        # 6fd0 <socket@GLIBC_2.2.5>
    145b:	0f 1f 44 00 00       	nopl   0x0(%rax,%rax,1)

Disassembly of section .text:

0000000000001460 <_start>:
    1460:	f3 0f 1e fa          	endbr64 
    1464:	31 ed                	xor    %ebp,%ebp
    1466:	49 89 d1             	mov    %rdx,%r9
    1469:	5e                   	pop    %rsi
    146a:	48 89 e2             	mov    %rsp,%rdx
    146d:	48 83 e4 f0          	and    $0xfffffffffffffff0,%rsp
    1471:	50                   	push   %rax
    1472:	54                   	push   %rsp
    1473:	4c 8d 05 16 22 00 00 	lea    0x2216(%rip),%r8        # 3690 <__libc_csu_fini>
    147a:	48 8d 0d 9f 21 00 00 	lea    0x219f(%rip),%rcx        # 3620 <__libc_csu_init>
    1481:	48 8d 3d 04 03 00 00 	lea    0x304(%rip),%rdi        # 178c <main>
    1488:	ff 15 52 5b 00 00    	callq  *0x5b52(%rip)        # 6fe0 <__libc_start_main@GLIBC_2.2.5>
    148e:	f4                   	hlt    
    148f:	90                   	nop

0000000000001490 <deregister_tm_clones>:
    1490:	48 8d 3d d9 5e 00 00 	lea    0x5ed9(%rip),%rdi        # 7370 <__TMC_END__>
    1497:	48 8d 05 d2 5e 00 00 	lea    0x5ed2(%rip),%rax        # 7370 <__TMC_END__>
    149e:	48 39 f8             	cmp    %rdi,%rax
    14a1:	74 15                	je     14b8 <deregister_tm_clones+0x28>
    14a3:	48 8b 05 2e 5b 00 00 	mov    0x5b2e(%rip),%rax        # 6fd8 <_ITM_deregisterTMCloneTable>
    14aa:	48 85 c0             	test   %rax,%rax
    14ad:	74 09                	je     14b8 <deregister_tm_clones+0x28>
    14af:	ff e0                	jmpq   *%rax
    14b1:	0f 1f 80 00 00 00 00 	nopl   0x0(%rax)
    14b8:	c3                   	retq   
    14b9:	0f 1f 80 00 00 00 00 	nopl   0x0(%rax)

00000000000014c0 <register_tm_clones>:
    14c0:	48 8d 3d a9 5e 00 00 	lea    0x5ea9(%rip),%rdi        # 7370 <__TMC_END__>
    14c7:	48 8d 35 a2 5e 00 00 	lea    0x5ea2(%rip),%rsi        # 7370 <__TMC_END__>
    14ce:	48 29 fe             	sub    %rdi,%rsi
    14d1:	48 89 f0             	mov    %rsi,%rax
    14d4:	48 c1 ee 3f          	shr    $0x3f,%rsi
    14d8:	48 c1 f8 03          	sar    $0x3,%rax
    14dc:	48 01 c6             	add    %rax,%rsi
    14df:	48 d1 fe             	sar    %rsi
    14e2:	74 14                	je     14f8 <register_tm_clones+0x38>
    14e4:	48 8b 05 05 5b 00 00 	mov    0x5b05(%rip),%rax        # 6ff0 <_ITM_registerTMCloneTable>
    14eb:	48 85 c0             	test   %rax,%rax
    14ee:	74 08                	je     14f8 <register_tm_clones+0x38>
    14f0:	ff e0                	jmpq   *%rax
    14f2:	66 0f 1f 44 00 00    	nopw   0x0(%rax,%rax,1)
    14f8:	c3                   	retq   
    14f9:	0f 1f 80 00 00 00 00 	nopl   0x0(%rax)

0000000000001500 <__do_global_dtors_aux>:
    1500:	f3 0f 1e fa          	endbr64 
    1504:	80 3d 9d 5e 00 00 00 	cmpb   $0x0,0x5e9d(%rip)        # 73a8 <completed.8060>
    150b:	75 2b                	jne    1538 <__do_global_dtors_aux+0x38>
    150d:	55                   	push   %rbp
    150e:	48 83 3d e2 5a 00 00 	cmpq   $0x0,0x5ae2(%rip)        # 6ff8 <__cxa_finalize@GLIBC_2.2.5>
    1515:	00 
    1516:	48 89 e5             	mov    %rsp,%rbp
    1519:	74 0c                	je     1527 <__do_global_dtors_aux+0x27>
    151b:	48 8b 3d e6 5a 00 00 	mov    0x5ae6(%rip),%rdi        # 7008 <__dso_handle>
    1522:	e8 19 fd ff ff       	callq  1240 <__cxa_finalize@plt>
    1527:	e8 64 ff ff ff       	callq  1490 <deregister_tm_clones>
    152c:	c6 05 75 5e 00 00 01 	movb   $0x1,0x5e75(%rip)        # 73a8 <completed.8060>
    1533:	5d                   	pop    %rbp
    1534:	c3                   	retq   
    1535:	0f 1f 00             	nopl   (%rax)
    1538:	c3                   	retq   
    1539:	0f 1f 80 00 00 00 00 	nopl   0x0(%rax)

0000000000001540 <frame_dummy>:
    1540:	f3 0f 1e fa          	endbr64 
    1544:	e9 77 ff ff ff       	jmpq   14c0 <register_tm_clones>

0000000000001549 <usage>:
    1549:	50                   	push   %rax
    154a:	58                   	pop    %rax
    154b:	48 83 ec 08          	sub    $0x8,%rsp
    154f:	48 89 fa             	mov    %rdi,%rdx
    1552:	83 3d 8f 5e 00 00 00 	cmpl   $0x0,0x5e8f(%rip)        # 73e8 <is_checker>
    1559:	74 50                	je     15ab <usage+0x62>
    155b:	48 8d 35 a6 2a 00 00 	lea    0x2aa6(%rip),%rsi        # 4008 <_IO_stdin_used+0x8>
    1562:	bf 01 00 00 00       	mov    $0x1,%edi
    1567:	b8 00 00 00 00       	mov    $0x0,%eax
    156c:	e8 3f fe ff ff       	callq  13b0 <__printf_chk@plt>
    1571:	48 8d 3d c8 2a 00 00 	lea    0x2ac8(%rip),%rdi        # 4040 <_IO_stdin_used+0x40>
    1578:	e8 23 fd ff ff       	callq  12a0 <puts@plt>
    157d:	48 8d 3d 34 2c 00 00 	lea    0x2c34(%rip),%rdi        # 41b8 <_IO_stdin_used+0x1b8>
    1584:	e8 17 fd ff ff       	callq  12a0 <puts@plt>
    1589:	48 8d 3d d8 2a 00 00 	lea    0x2ad8(%rip),%rdi        # 4068 <_IO_stdin_used+0x68>
    1590:	e8 0b fd ff ff       	callq  12a0 <puts@plt>
    1595:	48 8d 3d 36 2c 00 00 	lea    0x2c36(%rip),%rdi        # 41d2 <_IO_stdin_used+0x1d2>
    159c:	e8 ff fc ff ff       	callq  12a0 <puts@plt>
    15a1:	bf 00 00 00 00       	mov    $0x0,%edi
    15a6:	e8 55 fe ff ff       	callq  1400 <exit@plt>
    15ab:	48 8d 35 3c 2c 00 00 	lea    0x2c3c(%rip),%rsi        # 41ee <_IO_stdin_used+0x1ee>
    15b2:	bf 01 00 00 00       	mov    $0x1,%edi
    15b7:	b8 00 00 00 00       	mov    $0x0,%eax
    15bc:	e8 ef fd ff ff       	callq  13b0 <__printf_chk@plt>
    15c1:	48 8d 3d c8 2a 00 00 	lea    0x2ac8(%rip),%rdi        # 4090 <_IO_stdin_used+0x90>
    15c8:	e8 d3 fc ff ff       	callq  12a0 <puts@plt>
    15cd:	48 8d 3d e4 2a 00 00 	lea    0x2ae4(%rip),%rdi        # 40b8 <_IO_stdin_used+0xb8>
    15d4:	e8 c7 fc ff ff       	callq  12a0 <puts@plt>
    15d9:	48 8d 3d 2c 2c 00 00 	lea    0x2c2c(%rip),%rdi        # 420c <_IO_stdin_used+0x20c>
    15e0:	e8 bb fc ff ff       	callq  12a0 <puts@plt>
    15e5:	eb ba                	jmp    15a1 <usage+0x58>

00000000000015e7 <initialize_target>:
    15e7:	55                   	push   %rbp
    15e8:	53                   	push   %rbx
    15e9:	48 81 ec 00 10 00 00 	sub    $0x1000,%rsp
    15f0:	48 83 0c 24 00       	orq    $0x0,(%rsp)
    15f5:	48 81 ec 00 10 00 00 	sub    $0x1000,%rsp
    15fc:	48 83 0c 24 00       	orq    $0x0,(%rsp)
    1601:	48 81 ec 18 01 00 00 	sub    $0x118,%rsp
    1608:	89 f5                	mov    %esi,%ebp
    160a:	64 48 8b 04 25 28 00 	mov    %fs:0x28,%rax
    1611:	00 00 
    1613:	48 89 84 24 08 21 00 	mov    %rax,0x2108(%rsp)
    161a:	00 
    161b:	31 c0                	xor    %eax,%eax
    161d:	89 3d b5 5d 00 00    	mov    %edi,0x5db5(%rip)        # 73d8 <check_level>
    1623:	8b 3d e7 59 00 00    	mov    0x59e7(%rip),%edi        # 7010 <target_id>
    1629:	e8 c2 1f 00 00       	callq  35f0 <gencookie>
    162e:	89 c7                	mov    %eax,%edi
    1630:	89 05 ae 5d 00 00    	mov    %eax,0x5dae(%rip)        # 73e4 <cookie>
    1636:	e8 b5 1f 00 00       	callq  35f0 <gencookie>
    163b:	89 05 9f 5d 00 00    	mov    %eax,0x5d9f(%rip)        # 73e0 <authkey>
    1641:	8b 05 c9 59 00 00    	mov    0x59c9(%rip),%eax        # 7010 <target_id>
    1647:	8d 78 01             	lea    0x1(%rax),%edi
    164a:	e8 21 fc ff ff       	callq  1270 <srandom@plt>
    164f:	e8 2c fd ff ff       	callq  1380 <random@plt>
    1654:	48 89 c7             	mov    %rax,%rdi
    1657:	e8 20 03 00 00       	callq  197c <scramble>
    165c:	89 c3                	mov    %eax,%ebx
    165e:	85 ed                	test   %ebp,%ebp
    1660:	75 54                	jne    16b6 <initialize_target+0xcf>
    1662:	b8 00 00 00 00       	mov    $0x0,%eax
    1667:	01 d8                	add    %ebx,%eax
    1669:	0f b7 c0             	movzwl %ax,%eax
    166c:	8d 04 c5 00 01 00 00 	lea    0x100(,%rax,8),%eax
    1673:	89 c0                	mov    %eax,%eax
    1675:	48 89 05 e4 5c 00 00 	mov    %rax,0x5ce4(%rip)        # 7360 <buf_offset>
    167c:	c6 05 85 69 00 00 63 	movb   $0x63,0x6985(%rip)        # 8008 <target_prefix>
    1683:	83 3d de 5c 00 00 00 	cmpl   $0x0,0x5cde(%rip)        # 7368 <notify>
    168a:	74 09                	je     1695 <initialize_target+0xae>
    168c:	83 3d 55 5d 00 00 00 	cmpl   $0x0,0x5d55(%rip)        # 73e8 <is_checker>
    1693:	74 3a                	je     16cf <initialize_target+0xe8>
    1695:	48 8b 84 24 08 21 00 	mov    0x2108(%rsp),%rax
    169c:	00 
    169d:	64 48 33 04 25 28 00 	xor    %fs:0x28,%rax
    16a4:	00 00 
    16a6:	0f 85 db 00 00 00    	jne    1787 <initialize_target+0x1a0>
    16ac:	48 81 c4 18 21 00 00 	add    $0x2118,%rsp
    16b3:	5b                   	pop    %rbx
    16b4:	5d                   	pop    %rbp
    16b5:	c3                   	retq   
    16b6:	bf 00 00 00 00       	mov    $0x0,%edi
    16bb:	e8 b0 fc ff ff       	callq  1370 <time@plt>
    16c0:	48 89 c7             	mov    %rax,%rdi
    16c3:	e8 a8 fb ff ff       	callq  1270 <srandom@plt>
    16c8:	e8 b3 fc ff ff       	callq  1380 <random@plt>
    16cd:	eb 98                	jmp    1667 <initialize_target+0x80>
    16cf:	48 89 e7             	mov    %rsp,%rdi
    16d2:	be 00 01 00 00       	mov    $0x100,%esi
    16d7:	e8 14 fd ff ff       	callq  13f0 <gethostname@plt>
    16dc:	89 c5                	mov    %eax,%ebp
    16de:	85 c0                	test   %eax,%eax
    16e0:	75 26                	jne    1708 <initialize_target+0x121>
    16e2:	89 c3                	mov    %eax,%ebx
    16e4:	48 63 c3             	movslq %ebx,%rax
    16e7:	48 8d 15 52 59 00 00 	lea    0x5952(%rip),%rdx        # 7040 <host_table>
    16ee:	48 8b 3c c2          	mov    (%rdx,%rax,8),%rdi
    16f2:	48 85 ff             	test   %rdi,%rdi
    16f5:	74 2c                	je     1723 <initialize_target+0x13c>
    16f7:	48 89 e6             	mov    %rsp,%rsi
    16fa:	e8 51 fb ff ff       	callq  1250 <strcasecmp@plt>
    16ff:	85 c0                	test   %eax,%eax
    1701:	74 1b                	je     171e <initialize_target+0x137>
    1703:	83 c3 01             	add    $0x1,%ebx
    1706:	eb dc                	jmp    16e4 <initialize_target+0xfd>
    1708:	48 8d 3d d9 29 00 00 	lea    0x29d9(%rip),%rdi        # 40e8 <_IO_stdin_used+0xe8>
    170f:	e8 8c fb ff ff       	callq  12a0 <puts@plt>
    1714:	bf 08 00 00 00       	mov    $0x8,%edi
    1719:	e8 e2 fc ff ff       	callq  1400 <exit@plt>
    171e:	bd 01 00 00 00       	mov    $0x1,%ebp
    1723:	85 ed                	test   %ebp,%ebp
    1725:	74 3d                	je     1764 <initialize_target+0x17d>
    1727:	48 8d bc 24 00 01 00 	lea    0x100(%rsp),%rdi
    172e:	00 
    172f:	e8 01 1c 00 00       	callq  3335 <init_driver>
    1734:	85 c0                	test   %eax,%eax
    1736:	0f 89 59 ff ff ff    	jns    1695 <initialize_target+0xae>
    173c:	48 8d 94 24 00 01 00 	lea    0x100(%rsp),%rdx
    1743:	00 
    1744:	48 8d 35 15 2a 00 00 	lea    0x2a15(%rip),%rsi        # 4160 <_IO_stdin_used+0x160>
    174b:	bf 01 00 00 00       	mov    $0x1,%edi
    1750:	b8 00 00 00 00       	mov    $0x0,%eax
    1755:	e8 56 fc ff ff       	callq  13b0 <__printf_chk@plt>
    175a:	bf 08 00 00 00       	mov    $0x8,%edi
    175f:	e8 9c fc ff ff       	callq  1400 <exit@plt>
    1764:	48 89 e2             	mov    %rsp,%rdx
    1767:	48 8d 35 b2 29 00 00 	lea    0x29b2(%rip),%rsi        # 4120 <_IO_stdin_used+0x120>
    176e:	bf 01 00 00 00       	mov    $0x1,%edi
    1773:	b8 00 00 00 00       	mov    $0x0,%eax
    1778:	e8 33 fc ff ff       	callq  13b0 <__printf_chk@plt>
    177d:	bf 08 00 00 00       	mov    $0x8,%edi
    1782:	e8 79 fc ff ff       	callq  1400 <exit@plt>
    1787:	e8 34 fb ff ff       	callq  12c0 <__stack_chk_fail@plt>

000000000000178c <main>:
    178c:	f3 0f 1e fa          	endbr64 
    1790:	41 56                	push   %r14
    1792:	41 55                	push   %r13
    1794:	41 54                	push   %r12
    1796:	55                   	push   %rbp
    1797:	53                   	push   %rbx
    1798:	89 fd                	mov    %edi,%ebp
    179a:	48 89 f3             	mov    %rsi,%rbx
    179d:	48 8d 35 34 0e 00 00 	lea    0xe34(%rip),%rsi        # 25d8 <seghandler>
    17a4:	bf 0b 00 00 00       	mov    $0xb,%edi
    17a9:	e8 72 fb ff ff       	callq  1320 <signal@plt>
    17ae:	48 8d 35 c9 0d 00 00 	lea    0xdc9(%rip),%rsi        # 257e <bushandler>
    17b5:	bf 07 00 00 00       	mov    $0x7,%edi
    17ba:	e8 61 fb ff ff       	callq  1320 <signal@plt>
    17bf:	48 8d 35 6c 0e 00 00 	lea    0xe6c(%rip),%rsi        # 2632 <illegalhandler>
    17c6:	bf 04 00 00 00       	mov    $0x4,%edi
    17cb:	e8 50 fb ff ff       	callq  1320 <signal@plt>
    17d0:	83 3d 11 5c 00 00 00 	cmpl   $0x0,0x5c11(%rip)        # 73e8 <is_checker>
    17d7:	75 26                	jne    17ff <main+0x73>
    17d9:	4c 8d 25 4d 2a 00 00 	lea    0x2a4d(%rip),%r12        # 422d <_IO_stdin_used+0x22d>
    17e0:	48 8b 05 99 5b 00 00 	mov    0x5b99(%rip),%rax        # 7380 <stdin@@GLIBC_2.2.5>
    17e7:	48 89 05 e2 5b 00 00 	mov    %rax,0x5be2(%rip)        # 73d0 <infile>
    17ee:	41 bd 00 00 00 00    	mov    $0x0,%r13d
    17f4:	41 be 00 00 00 00    	mov    $0x0,%r14d
    17fa:	e9 8d 00 00 00       	jmpq   188c <main+0x100>
    17ff:	48 8d 35 86 0e 00 00 	lea    0xe86(%rip),%rsi        # 268c <sigalrmhandler>
    1806:	bf 0e 00 00 00       	mov    $0xe,%edi
    180b:	e8 10 fb ff ff       	callq  1320 <signal@plt>
    1810:	bf 05 00 00 00       	mov    $0x5,%edi
    1815:	e8 d6 fa ff ff       	callq  12f0 <alarm@plt>
    181a:	4c 8d 25 04 2a 00 00 	lea    0x2a04(%rip),%r12        # 4225 <_IO_stdin_used+0x225>
    1821:	eb bd                	jmp    17e0 <main+0x54>
    1823:	48 8b 3b             	mov    (%rbx),%rdi
    1826:	e8 1e fd ff ff       	callq  1549 <usage>
    182b:	48 8d 35 e3 2c 00 00 	lea    0x2ce3(%rip),%rsi        # 4515 <_IO_stdin_used+0x515>
    1832:	48 8b 3d 4f 5b 00 00 	mov    0x5b4f(%rip),%rdi        # 7388 <optarg@@GLIBC_2.2.5>
    1839:	e8 82 fb ff ff       	callq  13c0 <fopen@plt>
    183e:	48 89 05 8b 5b 00 00 	mov    %rax,0x5b8b(%rip)        # 73d0 <infile>
    1845:	48 85 c0             	test   %rax,%rax
    1848:	75 42                	jne    188c <main+0x100>
    184a:	48 8b 0d 37 5b 00 00 	mov    0x5b37(%rip),%rcx        # 7388 <optarg@@GLIBC_2.2.5>
    1851:	48 8d 15 da 29 00 00 	lea    0x29da(%rip),%rdx        # 4232 <_IO_stdin_used+0x232>
    1858:	be 01 00 00 00       	mov    $0x1,%esi
    185d:	48 8b 3d 3c 5b 00 00 	mov    0x5b3c(%rip),%rdi        # 73a0 <stderr@@GLIBC_2.2.5>
    1864:	e8 b7 fb ff ff       	callq  1420 <__fprintf_chk@plt>
    1869:	b8 01 00 00 00       	mov    $0x1,%eax
    186e:	e9 db 00 00 00       	jmpq   194e <main+0x1c2>
    1873:	ba 10 00 00 00       	mov    $0x10,%edx
    1878:	be 00 00 00 00       	mov    $0x0,%esi
    187d:	48 8b 3d 04 5b 00 00 	mov    0x5b04(%rip),%rdi        # 7388 <optarg@@GLIBC_2.2.5>
    1884:	e8 57 fb ff ff       	callq  13e0 <strtoul@plt>
    1889:	41 89 c6             	mov    %eax,%r14d
    188c:	4c 89 e2             	mov    %r12,%rdx
    188f:	48 89 de             	mov    %rbx,%rsi
    1892:	89 ef                	mov    %ebp,%edi
    1894:	e8 37 fb ff ff       	callq  13d0 <getopt@plt>
    1899:	3c ff                	cmp    $0xff,%al
    189b:	74 65                	je     1902 <main+0x176>
    189d:	0f be c8             	movsbl %al,%ecx
    18a0:	83 e8 61             	sub    $0x61,%eax
    18a3:	3c 10                	cmp    $0x10,%al
    18a5:	77 3b                	ja     18e2 <main+0x156>
    18a7:	0f b6 c0             	movzbl %al,%eax
    18aa:	48 8d 15 bf 29 00 00 	lea    0x29bf(%rip),%rdx        # 4270 <_IO_stdin_used+0x270>
    18b1:	48 63 04 82          	movslq (%rdx,%rax,4),%rax
    18b5:	48 01 d0             	add    %rdx,%rax
    18b8:	3e ff e0             	notrack jmpq *%rax
    18bb:	ba 0a 00 00 00       	mov    $0xa,%edx
    18c0:	be 00 00 00 00       	mov    $0x0,%esi
    18c5:	48 8b 3d bc 5a 00 00 	mov    0x5abc(%rip),%rdi        # 7388 <optarg@@GLIBC_2.2.5>
    18cc:	e8 7f fa ff ff       	callq  1350 <strtol@plt>
    18d1:	41 89 c5             	mov    %eax,%r13d
    18d4:	eb b6                	jmp    188c <main+0x100>
    18d6:	c7 05 88 5a 00 00 00 	movl   $0x0,0x5a88(%rip)        # 7368 <notify>
    18dd:	00 00 00 
    18e0:	eb aa                	jmp    188c <main+0x100>
    18e2:	89 ca                	mov    %ecx,%edx
    18e4:	48 8d 35 64 29 00 00 	lea    0x2964(%rip),%rsi        # 424f <_IO_stdin_used+0x24f>
    18eb:	bf 01 00 00 00       	mov    $0x1,%edi
    18f0:	b8 00 00 00 00       	mov    $0x0,%eax
    18f5:	e8 b6 fa ff ff       	callq  13b0 <__printf_chk@plt>
    18fa:	48 8b 3b             	mov    (%rbx),%rdi
    18fd:	e8 47 fc ff ff       	callq  1549 <usage>
    1902:	be 00 00 00 00       	mov    $0x0,%esi
    1907:	44 89 ef             	mov    %r13d,%edi
    190a:	e8 d8 fc ff ff       	callq  15e7 <initialize_target>
    190f:	83 3d d2 5a 00 00 00 	cmpl   $0x0,0x5ad2(%rip)        # 73e8 <is_checker>
    1916:	74 09                	je     1921 <main+0x195>
    1918:	44 39 35 c1 5a 00 00 	cmp    %r14d,0x5ac1(%rip)        # 73e0 <authkey>
    191f:	75 36                	jne    1957 <main+0x1cb>
    1921:	8b 15 bd 5a 00 00    	mov    0x5abd(%rip),%edx        # 73e4 <cookie>
    1927:	48 8d 35 34 29 00 00 	lea    0x2934(%rip),%rsi        # 4262 <_IO_stdin_used+0x262>
    192e:	bf 01 00 00 00       	mov    $0x1,%edi
    1933:	b8 00 00 00 00       	mov    $0x0,%eax
    1938:	e8 73 fa ff ff       	callq  13b0 <__printf_chk@plt>
    193d:	48 8b 3d 1c 5a 00 00 	mov    0x5a1c(%rip),%rdi        # 7360 <buf_offset>
    1944:	e8 95 0e 00 00       	callq  27de <stable_launch>
    1949:	b8 00 00 00 00       	mov    $0x0,%eax
    194e:	5b                   	pop    %rbx
    194f:	5d                   	pop    %rbp
    1950:	41 5c                	pop    %r12
    1952:	41 5d                	pop    %r13
    1954:	41 5e                	pop    %r14
    1956:	c3                   	retq   
    1957:	44 89 f2             	mov    %r14d,%edx
    195a:	48 8d 35 27 28 00 00 	lea    0x2827(%rip),%rsi        # 4188 <_IO_stdin_used+0x188>
    1961:	bf 01 00 00 00       	mov    $0x1,%edi
    1966:	b8 00 00 00 00       	mov    $0x0,%eax
    196b:	e8 40 fa ff ff       	callq  13b0 <__printf_chk@plt>
    1970:	b8 00 00 00 00       	mov    $0x0,%eax
    1975:	e8 53 08 00 00       	callq  21cd <check_fail>
    197a:	eb a5                	jmp    1921 <main+0x195>

000000000000197c <scramble>:
    197c:	f3 0f 1e fa          	endbr64 
    1980:	48 83 ec 38          	sub    $0x38,%rsp
    1984:	64 48 8b 04 25 28 00 	mov    %fs:0x28,%rax
    198b:	00 00 
    198d:	48 89 44 24 28       	mov    %rax,0x28(%rsp)
    1992:	31 c0                	xor    %eax,%eax
    1994:	83 f8 09             	cmp    $0x9,%eax
    1997:	77 12                	ja     19ab <scramble+0x2f>
    1999:	69 d0 01 73 00 00    	imul   $0x7301,%eax,%edx
    199f:	01 fa                	add    %edi,%edx
    19a1:	89 c1                	mov    %eax,%ecx
    19a3:	89 14 8c             	mov    %edx,(%rsp,%rcx,4)
    19a6:	83 c0 01             	add    $0x1,%eax
    19a9:	eb e9                	jmp    1994 <scramble+0x18>
    19ab:	8b 44 24 24          	mov    0x24(%rsp),%eax
    19af:	69 c0 ae 89 00 00    	imul   $0x89ae,%eax,%eax
    19b5:	89 44 24 24          	mov    %eax,0x24(%rsp)
    19b9:	8b 44 24 18          	mov    0x18(%rsp),%eax
    19bd:	69 c0 ac 23 00 00    	imul   $0x23ac,%eax,%eax
    19c3:	89 44 24 18          	mov    %eax,0x18(%rsp)
    19c7:	8b 44 24 08          	mov    0x8(%rsp),%eax
    19cb:	69 c0 31 82 00 00    	imul   $0x8231,%eax,%eax
    19d1:	89 44 24 08          	mov    %eax,0x8(%rsp)
    19d5:	8b 44 24 08          	mov    0x8(%rsp),%eax
    19d9:	69 c0 b9 39 00 00    	imul   $0x39b9,%eax,%eax
    19df:	89 44 24 08          	mov    %eax,0x8(%rsp)
    19e3:	8b 04 24             	mov    (%rsp),%eax
    19e6:	69 c0 08 9a 00 00    	imul   $0x9a08,%eax,%eax
    19ec:	89 04 24             	mov    %eax,(%rsp)
    19ef:	8b 44 24 14          	mov    0x14(%rsp),%eax
    19f3:	69 c0 1a f7 00 00    	imul   $0xf71a,%eax,%eax
    19f9:	89 44 24 14          	mov    %eax,0x14(%rsp)
    19fd:	8b 44 24 14          	mov    0x14(%rsp),%eax
    1a01:	69 c0 bd 6e 00 00    	imul   $0x6ebd,%eax,%eax
    1a07:	89 44 24 14          	mov    %eax,0x14(%rsp)
    1a0b:	8b 44 24 04          	mov    0x4(%rsp),%eax
    1a0f:	69 c0 14 ad 00 00    	imul   $0xad14,%eax,%eax
    1a15:	89 44 24 04          	mov    %eax,0x4(%rsp)
    1a19:	8b 44 24 20          	mov    0x20(%rsp),%eax
    1a1d:	69 c0 36 12 00 00    	imul   $0x1236,%eax,%eax
    1a23:	89 44 24 20          	mov    %eax,0x20(%rsp)
    1a27:	8b 44 24 04          	mov    0x4(%rsp),%eax
    1a2b:	69 c0 9d 12 00 00    	imul   $0x129d,%eax,%eax
    1a31:	89 44 24 04          	mov    %eax,0x4(%rsp)
    1a35:	8b 44 24 18          	mov    0x18(%rsp),%eax
    1a39:	69 c0 00 75 00 00    	imul   $0x7500,%eax,%eax
    1a3f:	89 44 24 18          	mov    %eax,0x18(%rsp)
    1a43:	8b 44 24 08          	mov    0x8(%rsp),%eax
    1a47:	69 c0 dd 13 00 00    	imul   $0x13dd,%eax,%eax
    1a4d:	89 44 24 08          	mov    %eax,0x8(%rsp)
    1a51:	8b 44 24 08          	mov    0x8(%rsp),%eax
    1a55:	69 c0 06 b2 00 00    	imul   $0xb206,%eax,%eax
    1a5b:	89 44 24 08          	mov    %eax,0x8(%rsp)
    1a5f:	8b 44 24 18          	mov    0x18(%rsp),%eax
    1a63:	69 c0 56 2d 00 00    	imul   $0x2d56,%eax,%eax
    1a69:	89 44 24 18          	mov    %eax,0x18(%rsp)
    1a6d:	8b 44 24 24          	mov    0x24(%rsp),%eax
    1a71:	69 c0 2e 30 00 00    	imul   $0x302e,%eax,%eax
    1a77:	89 44 24 24          	mov    %eax,0x24(%rsp)
    1a7b:	8b 44 24 08          	mov    0x8(%rsp),%eax
    1a7f:	69 c0 68 b7 00 00    	imul   $0xb768,%eax,%eax
    1a85:	89 44 24 08          	mov    %eax,0x8(%rsp)
    1a89:	8b 04 24             	mov    (%rsp),%eax
    1a8c:	69 c0 6f dc 00 00    	imul   $0xdc6f,%eax,%eax
    1a92:	89 04 24             	mov    %eax,(%rsp)
    1a95:	8b 44 24 08          	mov    0x8(%rsp),%eax
    1a99:	69 c0 7c d1 00 00    	imul   $0xd17c,%eax,%eax
    1a9f:	89 44 24 08          	mov    %eax,0x8(%rsp)
    1aa3:	8b 44 24 10          	mov    0x10(%rsp),%eax
    1aa7:	69 c0 1c 5d 00 00    	imul   $0x5d1c,%eax,%eax
    1aad:	89 44 24 10          	mov    %eax,0x10(%rsp)
    1ab1:	8b 44 24 1c          	mov    0x1c(%rsp),%eax
    1ab5:	69 c0 b6 83 00 00    	imul   $0x83b6,%eax,%eax
    1abb:	89 44 24 1c          	mov    %eax,0x1c(%rsp)
    1abf:	8b 44 24 18          	mov    0x18(%rsp),%eax
    1ac3:	69 c0 ae 48 00 00    	imul   $0x48ae,%eax,%eax
    1ac9:	89 44 24 18          	mov    %eax,0x18(%rsp)
    1acd:	8b 44 24 1c          	mov    0x1c(%rsp),%eax
    1ad1:	69 c0 50 d3 00 00    	imul   $0xd350,%eax,%eax
    1ad7:	89 44 24 1c          	mov    %eax,0x1c(%rsp)
    1adb:	8b 44 24 08          	mov    0x8(%rsp),%eax
    1adf:	69 c0 7b 22 00 00    	imul   $0x227b,%eax,%eax
    1ae5:	89 44 24 08          	mov    %eax,0x8(%rsp)
    1ae9:	8b 44 24 24          	mov    0x24(%rsp),%eax
    1aed:	69 c0 b8 0e 00 00    	imul   $0xeb8,%eax,%eax
    1af3:	89 44 24 24          	mov    %eax,0x24(%rsp)
    1af7:	8b 44 24 04          	mov    0x4(%rsp),%eax
    1afb:	69 c0 41 24 00 00    	imul   $0x2441,%eax,%eax
    1b01:	89 44 24 04          	mov    %eax,0x4(%rsp)
    1b05:	8b 44 24 0c          	mov    0xc(%rsp),%eax
    1b09:	69 c0 47 9e 00 00    	imul   $0x9e47,%eax,%eax
    1b0f:	89 44 24 0c          	mov    %eax,0xc(%rsp)
    1b13:	8b 44 24 18          	mov    0x18(%rsp),%eax
    1b17:	69 c0 4f 45 00 00    	imul   $0x454f,%eax,%eax
    1b1d:	89 44 24 18          	mov    %eax,0x18(%rsp)
    1b21:	8b 44 24 18          	mov    0x18(%rsp),%eax
    1b25:	69 c0 09 f3 00 00    	imul   $0xf309,%eax,%eax
    1b2b:	89 44 24 18          	mov    %eax,0x18(%rsp)
    1b2f:	8b 44 24 1c          	mov    0x1c(%rsp),%eax
    1b33:	69 c0 3c ba 00 00    	imul   $0xba3c,%eax,%eax
    1b39:	89 44 24 1c          	mov    %eax,0x1c(%rsp)
    1b3d:	8b 04 24             	mov    (%rsp),%eax
    1b40:	69 c0 bc 3b 00 00    	imul   $0x3bbc,%eax,%eax
    1b46:	89 04 24             	mov    %eax,(%rsp)
    1b49:	8b 44 24 18          	mov    0x18(%rsp),%eax
    1b4d:	69 c0 f9 ff 00 00    	imul   $0xfff9,%eax,%eax
    1b53:	89 44 24 18          	mov    %eax,0x18(%rsp)
    1b57:	8b 44 24 08          	mov    0x8(%rsp),%eax
    1b5b:	69 c0 46 a4 00 00    	imul   $0xa446,%eax,%eax
    1b61:	89 44 24 08          	mov    %eax,0x8(%rsp)
    1b65:	8b 44 24 10          	mov    0x10(%rsp),%eax
    1b69:	69 c0 39 ce 00 00    	imul   $0xce39,%eax,%eax
    1b6f:	89 44 24 10          	mov    %eax,0x10(%rsp)
    1b73:	8b 44 24 0c          	mov    0xc(%rsp),%eax
    1b77:	69 c0 08 3b 00 00    	imul   $0x3b08,%eax,%eax
    1b7d:	89 44 24 0c          	mov    %eax,0xc(%rsp)
    1b81:	8b 44 24 08          	mov    0x8(%rsp),%eax
    1b85:	69 c0 f8 80 00 00    	imul   $0x80f8,%eax,%eax
    1b8b:	89 44 24 08          	mov    %eax,0x8(%rsp)
    1b8f:	8b 44 24 1c          	mov    0x1c(%rsp),%eax
    1b93:	69 c0 7a 22 00 00    	imul   $0x227a,%eax,%eax
    1b99:	89 44 24 1c          	mov    %eax,0x1c(%rsp)
    1b9d:	8b 44 24 18          	mov    0x18(%rsp),%eax
    1ba1:	69 c0 8e 39 00 00    	imul   $0x398e,%eax,%eax
    1ba7:	89 44 24 18          	mov    %eax,0x18(%rsp)
    1bab:	8b 44 24 08          	mov    0x8(%rsp),%eax
    1baf:	69 c0 12 81 00 00    	imul   $0x8112,%eax,%eax
    1bb5:	89 44 24 08          	mov    %eax,0x8(%rsp)
    1bb9:	8b 44 24 24          	mov    0x24(%rsp),%eax
    1bbd:	69 c0 2f 76 00 00    	imul   $0x762f,%eax,%eax
    1bc3:	89 44 24 24          	mov    %eax,0x24(%rsp)
    1bc7:	8b 44 24 08          	mov    0x8(%rsp),%eax
    1bcb:	69 c0 bb 90 00 00    	imul   $0x90bb,%eax,%eax
    1bd1:	89 44 24 08          	mov    %eax,0x8(%rsp)
    1bd5:	8b 44 24 18          	mov    0x18(%rsp),%eax
    1bd9:	69 c0 20 b1 00 00    	imul   $0xb120,%eax,%eax
    1bdf:	89 44 24 18          	mov    %eax,0x18(%rsp)
    1be3:	8b 44 24 20          	mov    0x20(%rsp),%eax
    1be7:	69 c0 b1 33 00 00    	imul   $0x33b1,%eax,%eax
    1bed:	89 44 24 20          	mov    %eax,0x20(%rsp)
    1bf1:	8b 44 24 1c          	mov    0x1c(%rsp),%eax
    1bf5:	69 c0 26 e1 00 00    	imul   $0xe126,%eax,%eax
    1bfb:	89 44 24 1c          	mov    %eax,0x1c(%rsp)
    1bff:	8b 44 24 18          	mov    0x18(%rsp),%eax
    1c03:	69 c0 c6 ed 00 00    	imul   $0xedc6,%eax,%eax
    1c09:	89 44 24 18          	mov    %eax,0x18(%rsp)
    1c0d:	8b 44 24 20          	mov    0x20(%rsp),%eax
    1c11:	69 c0 1a 47 00 00    	imul   $0x471a,%eax,%eax
    1c17:	89 44 24 20          	mov    %eax,0x20(%rsp)
    1c1b:	8b 44 24 14          	mov    0x14(%rsp),%eax
    1c1f:	69 c0 cc 85 00 00    	imul   $0x85cc,%eax,%eax
    1c25:	89 44 24 14          	mov    %eax,0x14(%rsp)
    1c29:	8b 04 24             	mov    (%rsp),%eax
    1c2c:	69 c0 a7 1c 00 00    	imul   $0x1ca7,%eax,%eax
    1c32:	89 04 24             	mov    %eax,(%rsp)
    1c35:	8b 44 24 20          	mov    0x20(%rsp),%eax
    1c39:	69 c0 7b 23 00 00    	imul   $0x237b,%eax,%eax
    1c3f:	89 44 24 20          	mov    %eax,0x20(%rsp)
    1c43:	8b 44 24 14          	mov    0x14(%rsp),%eax
    1c47:	69 c0 d5 9f 00 00    	imul   $0x9fd5,%eax,%eax
    1c4d:	89 44 24 14          	mov    %eax,0x14(%rsp)
    1c51:	8b 44 24 14          	mov    0x14(%rsp),%eax
    1c55:	69 c0 35 16 00 00    	imul   $0x1635,%eax,%eax
    1c5b:	89 44 24 14          	mov    %eax,0x14(%rsp)
    1c5f:	8b 44 24 18          	mov    0x18(%rsp),%eax
    1c63:	69 c0 41 1d 00 00    	imul   $0x1d41,%eax,%eax
    1c69:	89 44 24 18          	mov    %eax,0x18(%rsp)
    1c6d:	8b 04 24             	mov    (%rsp),%eax
    1c70:	69 c0 74 ea 00 00    	imul   $0xea74,%eax,%eax
    1c76:	89 04 24             	mov    %eax,(%rsp)
    1c79:	8b 44 24 04          	mov    0x4(%rsp),%eax
    1c7d:	69 c0 7a 2e 00 00    	imul   $0x2e7a,%eax,%eax
    1c83:	89 44 24 04          	mov    %eax,0x4(%rsp)
    1c87:	8b 44 24 0c          	mov    0xc(%rsp),%eax
    1c8b:	69 c0 da b2 00 00    	imul   $0xb2da,%eax,%eax
    1c91:	89 44 24 0c          	mov    %eax,0xc(%rsp)
    1c95:	8b 44 24 1c          	mov    0x1c(%rsp),%eax
    1c99:	69 c0 52 fb 00 00    	imul   $0xfb52,%eax,%eax
    1c9f:	89 44 24 1c          	mov    %eax,0x1c(%rsp)
    1ca3:	8b 44 24 08          	mov    0x8(%rsp),%eax
    1ca7:	69 c0 19 3f 00 00    	imul   $0x3f19,%eax,%eax
    1cad:	89 44 24 08          	mov    %eax,0x8(%rsp)
    1cb1:	8b 44 24 1c          	mov    0x1c(%rsp),%eax
    1cb5:	69 c0 98 72 00 00    	imul   $0x7298,%eax,%eax
    1cbb:	89 44 24 1c          	mov    %eax,0x1c(%rsp)
    1cbf:	8b 04 24             	mov    (%rsp),%eax
    1cc2:	69 c0 e2 a2 00 00    	imul   $0xa2e2,%eax,%eax
    1cc8:	89 04 24             	mov    %eax,(%rsp)
    1ccb:	8b 04 24             	mov    (%rsp),%eax
    1cce:	69 c0 86 99 00 00    	imul   $0x9986,%eax,%eax
    1cd4:	89 04 24             	mov    %eax,(%rsp)
    1cd7:	8b 04 24             	mov    (%rsp),%eax
    1cda:	69 c0 21 ef 00 00    	imul   $0xef21,%eax,%eax
    1ce0:	89 04 24             	mov    %eax,(%rsp)
    1ce3:	8b 44 24 0c          	mov    0xc(%rsp),%eax
    1ce7:	69 c0 2b ba 00 00    	imul   $0xba2b,%eax,%eax
    1ced:	89 44 24 0c          	mov    %eax,0xc(%rsp)
    1cf1:	8b 44 24 20          	mov    0x20(%rsp),%eax
    1cf5:	69 c0 b4 27 00 00    	imul   $0x27b4,%eax,%eax
    1cfb:	89 44 24 20          	mov    %eax,0x20(%rsp)
    1cff:	8b 44 24 24          	mov    0x24(%rsp),%eax
    1d03:	69 c0 00 9f 00 00    	imul   $0x9f00,%eax,%eax
    1d09:	89 44 24 24          	mov    %eax,0x24(%rsp)
    1d0d:	8b 44 24 04          	mov    0x4(%rsp),%eax
    1d11:	69 c0 b2 c1 00 00    	imul   $0xc1b2,%eax,%eax
    1d17:	89 44 24 04          	mov    %eax,0x4(%rsp)
    1d1b:	8b 44 24 24          	mov    0x24(%rsp),%eax
    1d1f:	69 c0 b3 a9 00 00    	imul   $0xa9b3,%eax,%eax
    1d25:	89 44 24 24          	mov    %eax,0x24(%rsp)
    1d29:	8b 44 24 18          	mov    0x18(%rsp),%eax
    1d2d:	69 c0 a2 5f 00 00    	imul   $0x5fa2,%eax,%eax
    1d33:	89 44 24 18          	mov    %eax,0x18(%rsp)
    1d37:	8b 44 24 0c          	mov    0xc(%rsp),%eax
    1d3b:	69 c0 97 10 00 00    	imul   $0x1097,%eax,%eax
    1d41:	89 44 24 0c          	mov    %eax,0xc(%rsp)
    1d45:	8b 44 24 20          	mov    0x20(%rsp),%eax
    1d49:	69 c0 c4 1d 00 00    	imul   $0x1dc4,%eax,%eax
    1d4f:	89 44 24 20          	mov    %eax,0x20(%rsp)
    1d53:	8b 44 24 08          	mov    0x8(%rsp),%eax
    1d57:	69 c0 9e b5 00 00    	imul   $0xb59e,%eax,%eax
    1d5d:	89 44 24 08          	mov    %eax,0x8(%rsp)
    1d61:	8b 44 24 20          	mov    0x20(%rsp),%eax
    1d65:	69 c0 bb e3 00 00    	imul   $0xe3bb,%eax,%eax
    1d6b:	89 44 24 20          	mov    %eax,0x20(%rsp)
    1d6f:	8b 44 24 0c          	mov    0xc(%rsp),%eax
    1d73:	69 c0 34 14 00 00    	imul   $0x1434,%eax,%eax
    1d79:	89 44 24 0c          	mov    %eax,0xc(%rsp)
    1d7d:	8b 44 24 18          	mov    0x18(%rsp),%eax
    1d81:	69 c0 62 5d 00 00    	imul   $0x5d62,%eax,%eax
    1d87:	89 44 24 18          	mov    %eax,0x18(%rsp)
    1d8b:	8b 44 24 1c          	mov    0x1c(%rsp),%eax
    1d8f:	69 c0 a0 95 00 00    	imul   $0x95a0,%eax,%eax
    1d95:	89 44 24 1c          	mov    %eax,0x1c(%rsp)
    1d99:	8b 44 24 18          	mov    0x18(%rsp),%eax
    1d9d:	69 c0 8a da 00 00    	imul   $0xda8a,%eax,%eax
    1da3:	89 44 24 18          	mov    %eax,0x18(%rsp)
    1da7:	8b 44 24 0c          	mov    0xc(%rsp),%eax
    1dab:	69 c0 ed 90 00 00    	imul   $0x90ed,%eax,%eax
    1db1:	89 44 24 0c          	mov    %eax,0xc(%rsp)
    1db5:	8b 44 24 20          	mov    0x20(%rsp),%eax
    1db9:	69 c0 c6 0f 00 00    	imul   $0xfc6,%eax,%eax
    1dbf:	89 44 24 20          	mov    %eax,0x20(%rsp)
    1dc3:	8b 44 24 18          	mov    0x18(%rsp),%eax
    1dc7:	69 c0 99 3e 00 00    	imul   $0x3e99,%eax,%eax
    1dcd:	89 44 24 18          	mov    %eax,0x18(%rsp)
    1dd1:	8b 44 24 14          	mov    0x14(%rsp),%eax
    1dd5:	69 c0 ea 21 00 00    	imul   $0x21ea,%eax,%eax
    1ddb:	89 44 24 14          	mov    %eax,0x14(%rsp)
    1ddf:	8b 44 24 10          	mov    0x10(%rsp),%eax
    1de3:	69 c0 aa 82 00 00    	imul   $0x82aa,%eax,%eax
    1de9:	89 44 24 10          	mov    %eax,0x10(%rsp)
    1ded:	8b 44 24 14          	mov    0x14(%rsp),%eax
    1df1:	69 c0 6e 1c 00 00    	imul   $0x1c6e,%eax,%eax
    1df7:	89 44 24 14          	mov    %eax,0x14(%rsp)
    1dfb:	8b 44 24 10          	mov    0x10(%rsp),%eax
    1dff:	69 c0 84 bb 00 00    	imul   $0xbb84,%eax,%eax
    1e05:	89 44 24 10          	mov    %eax,0x10(%rsp)
    1e09:	8b 44 24 24          	mov    0x24(%rsp),%eax
    1e0d:	69 c0 51 f3 00 00    	imul   $0xf351,%eax,%eax
    1e13:	89 44 24 24          	mov    %eax,0x24(%rsp)
    1e17:	8b 44 24 08          	mov    0x8(%rsp),%eax
    1e1b:	69 c0 27 c6 00 00    	imul   $0xc627,%eax,%eax
    1e21:	89 44 24 08          	mov    %eax,0x8(%rsp)
    1e25:	8b 44 24 14          	mov    0x14(%rsp),%eax
    1e29:	69 c0 2d 0b 00 00    	imul   $0xb2d,%eax,%eax
    1e2f:	89 44 24 14          	mov    %eax,0x14(%rsp)
    1e33:	8b 44 24 0c          	mov    0xc(%rsp),%eax
    1e37:	69 c0 b4 e1 00 00    	imul   $0xe1b4,%eax,%eax
    1e3d:	89 44 24 0c          	mov    %eax,0xc(%rsp)
    1e41:	8b 44 24 20          	mov    0x20(%rsp),%eax
    1e45:	69 c0 b5 2c 00 00    	imul   $0x2cb5,%eax,%eax
    1e4b:	89 44 24 20          	mov    %eax,0x20(%rsp)
    1e4f:	8b 44 24 20          	mov    0x20(%rsp),%eax
    1e53:	69 c0 be 11 00 00    	imul   $0x11be,%eax,%eax
    1e59:	89 44 24 20          	mov    %eax,0x20(%rsp)
    1e5d:	8b 44 24 20          	mov    0x20(%rsp),%eax
    1e61:	69 c0 b4 7c 00 00    	imul   $0x7cb4,%eax,%eax
    1e67:	89 44 24 20          	mov    %eax,0x20(%rsp)
    1e6b:	8b 44 24 0c          	mov    0xc(%rsp),%eax
    1e6f:	69 c0 5d 8a 00 00    	imul   $0x8a5d,%eax,%eax
    1e75:	89 44 24 0c          	mov    %eax,0xc(%rsp)
    1e79:	8b 44 24 08          	mov    0x8(%rsp),%eax
    1e7d:	69 c0 84 d6 00 00    	imul   $0xd684,%eax,%eax
    1e83:	89 44 24 08          	mov    %eax,0x8(%rsp)
    1e87:	8b 44 24 08          	mov    0x8(%rsp),%eax
    1e8b:	69 c0 ea 20 00 00    	imul   $0x20ea,%eax,%eax
    1e91:	89 44 24 08          	mov    %eax,0x8(%rsp)
    1e95:	8b 44 24 24          	mov    0x24(%rsp),%eax
    1e99:	69 c0 63 66 00 00    	imul   $0x6663,%eax,%eax
    1e9f:	89 44 24 24          	mov    %eax,0x24(%rsp)
    1ea3:	8b 44 24 24          	mov    0x24(%rsp),%eax
    1ea7:	69 c0 c5 1d 00 00    	imul   $0x1dc5,%eax,%eax
    1ead:	89 44 24 24          	mov    %eax,0x24(%rsp)
    1eb1:	8b 44 24 24          	mov    0x24(%rsp),%eax
    1eb5:	69 c0 1c 3d 00 00    	imul   $0x3d1c,%eax,%eax
    1ebb:	89 44 24 24          	mov    %eax,0x24(%rsp)
    1ebf:	8b 44 24 08          	mov    0x8(%rsp),%eax
    1ec3:	69 c0 ea 6b 00 00    	imul   $0x6bea,%eax,%eax
    1ec9:	89 44 24 08          	mov    %eax,0x8(%rsp)
    1ecd:	8b 44 24 20          	mov    0x20(%rsp),%eax
    1ed1:	69 c0 cc cc 00 00    	imul   $0xcccc,%eax,%eax
    1ed7:	89 44 24 20          	mov    %eax,0x20(%rsp)
    1edb:	8b 44 24 24          	mov    0x24(%rsp),%eax
    1edf:	69 c0 9b d5 00 00    	imul   $0xd59b,%eax,%eax
    1ee5:	89 44 24 24          	mov    %eax,0x24(%rsp)
    1ee9:	8b 04 24             	mov    (%rsp),%eax
    1eec:	69 c0 89 f3 00 00    	imul   $0xf389,%eax,%eax
    1ef2:	89 04 24             	mov    %eax,(%rsp)
    1ef5:	8b 44 24 24          	mov    0x24(%rsp),%eax
    1ef9:	69 c0 33 d1 00 00    	imul   $0xd133,%eax,%eax
    1eff:	89 44 24 24          	mov    %eax,0x24(%rsp)
    1f03:	8b 04 24             	mov    (%rsp),%eax
    1f06:	69 c0 88 17 00 00    	imul   $0x1788,%eax,%eax
    1f0c:	89 04 24             	mov    %eax,(%rsp)
    1f0f:	b8 00 00 00 00       	mov    $0x0,%eax
    1f14:	ba 00 00 00 00       	mov    $0x0,%edx
    1f19:	83 f8 09             	cmp    $0x9,%eax
    1f1c:	77 0c                	ja     1f2a <scramble+0x5ae>
    1f1e:	89 c1                	mov    %eax,%ecx
    1f20:	8b 0c 8c             	mov    (%rsp,%rcx,4),%ecx
    1f23:	01 ca                	add    %ecx,%edx
    1f25:	83 c0 01             	add    $0x1,%eax
    1f28:	eb ef                	jmp    1f19 <scramble+0x59d>
    1f2a:	48 8b 44 24 28       	mov    0x28(%rsp),%rax
    1f2f:	64 48 33 04 25 28 00 	xor    %fs:0x28,%rax
    1f36:	00 00 
    1f38:	75 07                	jne    1f41 <scramble+0x5c5>
    1f3a:	89 d0                	mov    %edx,%eax
    1f3c:	48 83 c4 38          	add    $0x38,%rsp
    1f40:	c3                   	retq   
    1f41:	e8 7a f3 ff ff       	callq  12c0 <__stack_chk_fail@plt>

0000000000001f46 <getbuf>:
    1f46:	f3 0f 1e fa          	endbr64 
    1f4a:	48 83 ec 18          	sub    $0x18,%rsp
    1f4e:	48 89 e7             	mov    %rsp,%rdi
    1f51:	e8 b5 02 00 00       	callq  220b <Gets>
    1f56:	b8 01 00 00 00       	mov    $0x1,%eax
    1f5b:	48 83 c4 18          	add    $0x18,%rsp
    1f5f:	c3                   	retq   

0000000000001f60 <touch1>:
    1f60:	f3 0f 1e fa          	endbr64 
    1f64:	50                   	push   %rax
    1f65:	58                   	pop    %rax
    1f66:	48 83 ec 08          	sub    $0x8,%rsp
    1f6a:	c7 05 68 54 00 00 01 	movl   $0x1,0x5468(%rip)        # 73dc <vlevel>
    1f71:	00 00 00 
    1f74:	48 8d 3d ec 23 00 00 	lea    0x23ec(%rip),%rdi        # 4367 <_IO_stdin_used+0x367>
    1f7b:	e8 20 f3 ff ff       	callq  12a0 <puts@plt>
    1f80:	bf 01 00 00 00       	mov    $0x1,%edi
    1f85:	e8 f4 04 00 00       	callq  247e <validate>
    1f8a:	bf 00 00 00 00       	mov    $0x0,%edi
    1f8f:	e8 6c f4 ff ff       	callq  1400 <exit@plt>

0000000000001f94 <touch2>:
    1f94:	f3 0f 1e fa          	endbr64 
    1f98:	50                   	push   %rax
    1f99:	58                   	pop    %rax
    1f9a:	48 83 ec 08          	sub    $0x8,%rsp
    1f9e:	89 fa                	mov    %edi,%edx
    1fa0:	c7 05 32 54 00 00 02 	movl   $0x2,0x5432(%rip)        # 73dc <vlevel>
    1fa7:	00 00 00 
    1faa:	39 3d 34 54 00 00    	cmp    %edi,0x5434(%rip)        # 73e4 <cookie>
    1fb0:	74 2a                	je     1fdc <touch2+0x48>
    1fb2:	48 8d 35 ff 23 00 00 	lea    0x23ff(%rip),%rsi        # 43b8 <_IO_stdin_used+0x3b8>
    1fb9:	bf 01 00 00 00       	mov    $0x1,%edi
    1fbe:	b8 00 00 00 00       	mov    $0x0,%eax
    1fc3:	e8 e8 f3 ff ff       	callq  13b0 <__printf_chk@plt>
    1fc8:	bf 02 00 00 00       	mov    $0x2,%edi
    1fcd:	e8 80 05 00 00       	callq  2552 <fail>
    1fd2:	bf 00 00 00 00       	mov    $0x0,%edi
    1fd7:	e8 24 f4 ff ff       	callq  1400 <exit@plt>
    1fdc:	48 8d 35 ad 23 00 00 	lea    0x23ad(%rip),%rsi        # 4390 <_IO_stdin_used+0x390>
    1fe3:	bf 01 00 00 00       	mov    $0x1,%edi
    1fe8:	b8 00 00 00 00       	mov    $0x0,%eax
    1fed:	e8 be f3 ff ff       	callq  13b0 <__printf_chk@plt>
    1ff2:	bf 02 00 00 00       	mov    $0x2,%edi
    1ff7:	e8 82 04 00 00       	callq  247e <validate>
    1ffc:	eb d4                	jmp    1fd2 <touch2+0x3e>

0000000000001ffe <hexmatch>:
    1ffe:	f3 0f 1e fa          	endbr64 
    2002:	41 55                	push   %r13
    2004:	41 54                	push   %r12
    2006:	55                   	push   %rbp
    2007:	53                   	push   %rbx
    2008:	48 81 ec 88 00 00 00 	sub    $0x88,%rsp
    200f:	89 fd                	mov    %edi,%ebp
    2011:	48 89 f3             	mov    %rsi,%rbx
    2014:	41 bc 28 00 00 00    	mov    $0x28,%r12d
    201a:	64 49 8b 04 24       	mov    %fs:(%r12),%rax
    201f:	48 89 44 24 78       	mov    %rax,0x78(%rsp)
    2024:	31 c0                	xor    %eax,%eax
    2026:	e8 55 f3 ff ff       	callq  1380 <random@plt>
    202b:	48 89 c1             	mov    %rax,%rcx
    202e:	48 ba 0b d7 a3 70 3d 	movabs $0xa3d70a3d70a3d70b,%rdx
    2035:	0a d7 a3 
    2038:	48 f7 ea             	imul   %rdx
    203b:	48 01 ca             	add    %rcx,%rdx
    203e:	48 c1 fa 06          	sar    $0x6,%rdx
    2042:	48 89 c8             	mov    %rcx,%rax
    2045:	48 c1 f8 3f          	sar    $0x3f,%rax
    2049:	48 29 c2             	sub    %rax,%rdx
    204c:	48 8d 04 92          	lea    (%rdx,%rdx,4),%rax
    2050:	48 8d 04 80          	lea    (%rax,%rax,4),%rax
    2054:	48 c1 e0 02          	shl    $0x2,%rax
    2058:	48 29 c1             	sub    %rax,%rcx
    205b:	4c 8d 2c 0c          	lea    (%rsp,%rcx,1),%r13
    205f:	41 89 e8             	mov    %ebp,%r8d
    2062:	48 8d 0d 1b 23 00 00 	lea    0x231b(%rip),%rcx        # 4384 <_IO_stdin_used+0x384>
    2069:	48 c7 c2 ff ff ff ff 	mov    $0xffffffffffffffff,%rdx
    2070:	be 01 00 00 00       	mov    $0x1,%esi
    2075:	4c 89 ef             	mov    %r13,%rdi
    2078:	b8 00 00 00 00       	mov    $0x0,%eax
    207d:	e8 be f3 ff ff       	callq  1440 <__sprintf_chk@plt>
    2082:	ba 09 00 00 00       	mov    $0x9,%edx
    2087:	4c 89 ee             	mov    %r13,%rsi
    208a:	48 89 df             	mov    %rbx,%rdi
    208d:	e8 ee f1 ff ff       	callq  1280 <strncmp@plt>
    2092:	85 c0                	test   %eax,%eax
    2094:	0f 94 c0             	sete   %al
    2097:	48 8b 5c 24 78       	mov    0x78(%rsp),%rbx
    209c:	64 49 33 1c 24       	xor    %fs:(%r12),%rbx
    20a1:	75 11                	jne    20b4 <hexmatch+0xb6>
    20a3:	0f b6 c0             	movzbl %al,%eax
    20a6:	48 81 c4 88 00 00 00 	add    $0x88,%rsp
    20ad:	5b                   	pop    %rbx
    20ae:	5d                   	pop    %rbp
    20af:	41 5c                	pop    %r12
    20b1:	41 5d                	pop    %r13
    20b3:	c3                   	retq   
    20b4:	e8 07 f2 ff ff       	callq  12c0 <__stack_chk_fail@plt>

00000000000020b9 <touch3>:
    20b9:	f3 0f 1e fa          	endbr64 
    20bd:	53                   	push   %rbx
    20be:	48 89 fb             	mov    %rdi,%rbx
    20c1:	c7 05 11 53 00 00 03 	movl   $0x3,0x5311(%rip)        # 73dc <vlevel>
    20c8:	00 00 00 
    20cb:	48 89 fe             	mov    %rdi,%rsi
    20ce:	8b 3d 10 53 00 00    	mov    0x5310(%rip),%edi        # 73e4 <cookie>
    20d4:	e8 25 ff ff ff       	callq  1ffe <hexmatch>
    20d9:	85 c0                	test   %eax,%eax
    20db:	74 2d                	je     210a <touch3+0x51>
    20dd:	48 89 da             	mov    %rbx,%rdx
    20e0:	48 8d 35 f9 22 00 00 	lea    0x22f9(%rip),%rsi        # 43e0 <_IO_stdin_used+0x3e0>
    20e7:	bf 01 00 00 00       	mov    $0x1,%edi
    20ec:	b8 00 00 00 00       	mov    $0x0,%eax
    20f1:	e8 ba f2 ff ff       	callq  13b0 <__printf_chk@plt>
    20f6:	bf 03 00 00 00       	mov    $0x3,%edi
    20fb:	e8 7e 03 00 00       	callq  247e <validate>
    2100:	bf 00 00 00 00       	mov    $0x0,%edi
    2105:	e8 f6 f2 ff ff       	callq  1400 <exit@plt>
    210a:	48 89 da             	mov    %rbx,%rdx
    210d:	48 8d 35 f4 22 00 00 	lea    0x22f4(%rip),%rsi        # 4408 <_IO_stdin_used+0x408>
    2114:	bf 01 00 00 00       	mov    $0x1,%edi
    2119:	b8 00 00 00 00       	mov    $0x0,%eax
    211e:	e8 8d f2 ff ff       	callq  13b0 <__printf_chk@plt>
    2123:	bf 03 00 00 00       	mov    $0x3,%edi
    2128:	e8 25 04 00 00       	callq  2552 <fail>
    212d:	eb d1                	jmp    2100 <touch3+0x47>

000000000000212f <test>:
    212f:	f3 0f 1e fa          	endbr64 
    2133:	48 83 ec 08          	sub    $0x8,%rsp
    2137:	b8 00 00 00 00       	mov    $0x0,%eax
    213c:	e8 05 fe ff ff       	callq  1f46 <getbuf>
    2141:	89 c2                	mov    %eax,%edx
    2143:	48 8d 35 e6 22 00 00 	lea    0x22e6(%rip),%rsi        # 4430 <_IO_stdin_used+0x430>
    214a:	bf 01 00 00 00       	mov    $0x1,%edi
    214f:	b8 00 00 00 00       	mov    $0x0,%eax
    2154:	e8 57 f2 ff ff       	callq  13b0 <__printf_chk@plt>
    2159:	48 83 c4 08          	add    $0x8,%rsp
    215d:	c3                   	retq   

000000000000215e <save_char>:
    215e:	8b 05 a0 5e 00 00    	mov    0x5ea0(%rip),%eax        # 8004 <gets_cnt>
    2164:	3d ff 03 00 00       	cmp    $0x3ff,%eax
    2169:	7f 4a                	jg     21b5 <save_char+0x57>
    216b:	89 f9                	mov    %edi,%ecx
    216d:	c0 e9 04             	shr    $0x4,%cl
    2170:	8d 14 40             	lea    (%rax,%rax,2),%edx
    2173:	4c 8d 05 d6 25 00 00 	lea    0x25d6(%rip),%r8        # 4750 <trans_char>
    217a:	83 e1 0f             	and    $0xf,%ecx
    217d:	45 0f b6 0c 08       	movzbl (%r8,%rcx,1),%r9d
    2182:	48 8d 0d 77 52 00 00 	lea    0x5277(%rip),%rcx        # 7400 <gets_buf>
    2189:	48 63 f2             	movslq %edx,%rsi
    218c:	44 88 0c 31          	mov    %r9b,(%rcx,%rsi,1)
    2190:	8d 72 01             	lea    0x1(%rdx),%esi
    2193:	83 e7 0f             	and    $0xf,%edi
    2196:	41 0f b6 3c 38       	movzbl (%r8,%rdi,1),%edi
    219b:	48 63 f6             	movslq %esi,%rsi
    219e:	40 88 3c 31          	mov    %dil,(%rcx,%rsi,1)
    21a2:	83 c2 02             	add    $0x2,%edx
    21a5:	48 63 d2             	movslq %edx,%rdx
    21a8:	c6 04 11 20          	movb   $0x20,(%rcx,%rdx,1)
    21ac:	83 c0 01             	add    $0x1,%eax
    21af:	89 05 4f 5e 00 00    	mov    %eax,0x5e4f(%rip)        # 8004 <gets_cnt>
    21b5:	c3                   	retq   

00000000000021b6 <save_term>:
    21b6:	8b 05 48 5e 00 00    	mov    0x5e48(%rip),%eax        # 8004 <gets_cnt>
    21bc:	8d 04 40             	lea    (%rax,%rax,2),%eax
    21bf:	48 98                	cltq   
    21c1:	48 8d 15 38 52 00 00 	lea    0x5238(%rip),%rdx        # 7400 <gets_buf>
    21c8:	c6 04 02 00          	movb   $0x0,(%rdx,%rax,1)
    21cc:	c3                   	retq   

00000000000021cd <check_fail>:
    21cd:	f3 0f 1e fa          	endbr64 
    21d1:	50                   	push   %rax
    21d2:	58                   	pop    %rax
    21d3:	48 83 ec 08          	sub    $0x8,%rsp
    21d7:	0f be 15 2a 5e 00 00 	movsbl 0x5e2a(%rip),%edx        # 8008 <target_prefix>
    21de:	4c 8d 05 1b 52 00 00 	lea    0x521b(%rip),%r8        # 7400 <gets_buf>
    21e5:	8b 0d ed 51 00 00    	mov    0x51ed(%rip),%ecx        # 73d8 <check_level>
    21eb:	48 8d 35 61 22 00 00 	lea    0x2261(%rip),%rsi        # 4453 <_IO_stdin_used+0x453>
    21f2:	bf 01 00 00 00       	mov    $0x1,%edi
    21f7:	b8 00 00 00 00       	mov    $0x0,%eax
    21fc:	e8 af f1 ff ff       	callq  13b0 <__printf_chk@plt>
    2201:	bf 01 00 00 00       	mov    $0x1,%edi
    2206:	e8 f5 f1 ff ff       	callq  1400 <exit@plt>

000000000000220b <Gets>:
    220b:	f3 0f 1e fa          	endbr64 
    220f:	41 54                	push   %r12
    2211:	55                   	push   %rbp
    2212:	53                   	push   %rbx
    2213:	49 89 fc             	mov    %rdi,%r12
    2216:	c7 05 e4 5d 00 00 00 	movl   $0x0,0x5de4(%rip)        # 8004 <gets_cnt>
    221d:	00 00 00 
    2220:	48 89 fb             	mov    %rdi,%rbx
    2223:	48 8b 3d a6 51 00 00 	mov    0x51a6(%rip),%rdi        # 73d0 <infile>
    222a:	e8 01 f2 ff ff       	callq  1430 <getc@plt>
    222f:	83 f8 ff             	cmp    $0xffffffff,%eax
    2232:	74 18                	je     224c <Gets+0x41>
    2234:	83 f8 0a             	cmp    $0xa,%eax
    2237:	74 13                	je     224c <Gets+0x41>
    2239:	48 8d 6b 01          	lea    0x1(%rbx),%rbp
    223d:	88 03                	mov    %al,(%rbx)
    223f:	0f b6 f8             	movzbl %al,%edi
    2242:	e8 17 ff ff ff       	callq  215e <save_char>
    2247:	48 89 eb             	mov    %rbp,%rbx
    224a:	eb d7                	jmp    2223 <Gets+0x18>
    224c:	c6 03 00             	movb   $0x0,(%rbx)
    224f:	b8 00 00 00 00       	mov    $0x0,%eax
    2254:	e8 5d ff ff ff       	callq  21b6 <save_term>
    2259:	4c 89 e0             	mov    %r12,%rax
    225c:	5b                   	pop    %rbx
    225d:	5d                   	pop    %rbp
    225e:	41 5c                	pop    %r12
    2260:	c3                   	retq   

0000000000002261 <notify_server>:
    2261:	f3 0f 1e fa          	endbr64 
    2265:	55                   	push   %rbp
    2266:	53                   	push   %rbx
    2267:	4c 8d 9c 24 00 c0 ff 	lea    -0x4000(%rsp),%r11
    226e:	ff 
    226f:	48 81 ec 00 10 00 00 	sub    $0x1000,%rsp
    2276:	48 83 0c 24 00       	orq    $0x0,(%rsp)
    227b:	4c 39 dc             	cmp    %r11,%rsp
    227e:	75 ef                	jne    226f <notify_server+0xe>
    2280:	48 83 ec 18          	sub    $0x18,%rsp
    2284:	64 48 8b 04 25 28 00 	mov    %fs:0x28,%rax
    228b:	00 00 
    228d:	48 89 84 24 08 40 00 	mov    %rax,0x4008(%rsp)
    2294:	00 
    2295:	31 c0                	xor    %eax,%eax
    2297:	83 3d 4a 51 00 00 00 	cmpl   $0x0,0x514a(%rip)        # 73e8 <is_checker>
    229e:	0f 85 26 01 00 00    	jne    23ca <notify_server+0x169>
    22a4:	89 fb                	mov    %edi,%ebx
    22a6:	81 3d 54 5d 00 00 9c 	cmpl   $0x1f9c,0x5d54(%rip)        # 8004 <gets_cnt>
    22ad:	1f 00 00 
    22b0:	7f 18                	jg     22ca <notify_server+0x69>
    22b2:	0f be 05 4f 5d 00 00 	movsbl 0x5d4f(%rip),%eax        # 8008 <target_prefix>
    22b9:	83 3d a8 50 00 00 00 	cmpl   $0x0,0x50a8(%rip)        # 7368 <notify>
    22c0:	74 23                	je     22e5 <notify_server+0x84>
    22c2:	8b 15 18 51 00 00    	mov    0x5118(%rip),%edx        # 73e0 <authkey>
    22c8:	eb 20                	jmp    22ea <notify_server+0x89>
    22ca:	48 8d 35 b7 22 00 00 	lea    0x22b7(%rip),%rsi        # 4588 <_IO_stdin_used+0x588>
    22d1:	bf 01 00 00 00       	mov    $0x1,%edi
    22d6:	e8 d5 f0 ff ff       	callq  13b0 <__printf_chk@plt>
    22db:	bf 01 00 00 00       	mov    $0x1,%edi
    22e0:	e8 1b f1 ff ff       	callq  1400 <exit@plt>
    22e5:	ba ff ff ff ff       	mov    $0xffffffff,%edx
    22ea:	85 db                	test   %ebx,%ebx
    22ec:	0f 84 98 00 00 00    	je     238a <notify_server+0x129>
    22f2:	48 8d 2d 75 21 00 00 	lea    0x2175(%rip),%rbp        # 446e <_IO_stdin_used+0x46e>
    22f9:	48 89 e7             	mov    %rsp,%rdi
    22fc:	48 8d 0d fd 50 00 00 	lea    0x50fd(%rip),%rcx        # 7400 <gets_buf>
    2303:	51                   	push   %rcx
    2304:	56                   	push   %rsi
    2305:	50                   	push   %rax
    2306:	52                   	push   %rdx
    2307:	49 89 e9             	mov    %rbp,%r9
    230a:	44 8b 05 ff 4c 00 00 	mov    0x4cff(%rip),%r8d        # 7010 <target_id>
    2311:	48 8d 0d 5b 21 00 00 	lea    0x215b(%rip),%rcx        # 4473 <_IO_stdin_used+0x473>
    2318:	ba 00 20 00 00       	mov    $0x2000,%edx
    231d:	be 01 00 00 00       	mov    $0x1,%esi
    2322:	b8 00 00 00 00       	mov    $0x0,%eax
    2327:	e8 14 f1 ff ff       	callq  1440 <__sprintf_chk@plt>
    232c:	48 83 c4 20          	add    $0x20,%rsp
    2330:	83 3d 31 50 00 00 00 	cmpl   $0x0,0x5031(%rip)        # 7368 <notify>
    2337:	0f 84 ae 00 00 00    	je     23eb <notify_server+0x18a>
    233d:	85 db                	test   %ebx,%ebx
    233f:	74 7d                	je     23be <notify_server+0x15d>
    2341:	48 89 e1             	mov    %rsp,%rcx
    2344:	4c 8d 8c 24 00 20 00 	lea    0x2000(%rsp),%r9
    234b:	00 
    234c:	41 b8 00 00 00 00    	mov    $0x0,%r8d
    2352:	48 8b 15 cf 4c 00 00 	mov    0x4ccf(%rip),%rdx        # 7028 <lab>
    2359:	48 8b 35 d0 4c 00 00 	mov    0x4cd0(%rip),%rsi        # 7030 <course>
    2360:	48 8b 3d b9 4c 00 00 	mov    0x4cb9(%rip),%rdi        # 7020 <user_id>
    2367:	e8 d9 11 00 00       	callq  3545 <driver_post>
    236c:	85 c0                	test   %eax,%eax
    236e:	78 26                	js     2396 <notify_server+0x135>
    2370:	48 8d 3d 41 22 00 00 	lea    0x2241(%rip),%rdi        # 45b8 <_IO_stdin_used+0x5b8>
    2377:	e8 24 ef ff ff       	callq  12a0 <puts@plt>
    237c:	48 8d 3d 18 21 00 00 	lea    0x2118(%rip),%rdi        # 449b <_IO_stdin_used+0x49b>
    2383:	e8 18 ef ff ff       	callq  12a0 <puts@plt>
    2388:	eb 40                	jmp    23ca <notify_server+0x169>
    238a:	48 8d 2d d8 20 00 00 	lea    0x20d8(%rip),%rbp        # 4469 <_IO_stdin_used+0x469>
    2391:	e9 63 ff ff ff       	jmpq   22f9 <notify_server+0x98>
    2396:	48 8d 94 24 00 20 00 	lea    0x2000(%rsp),%rdx
    239d:	00 
    239e:	48 8d 35 ea 20 00 00 	lea    0x20ea(%rip),%rsi        # 448f <_IO_stdin_used+0x48f>
    23a5:	bf 01 00 00 00       	mov    $0x1,%edi
    23aa:	b8 00 00 00 00       	mov    $0x0,%eax
    23af:	e8 fc ef ff ff       	callq  13b0 <__printf_chk@plt>
    23b4:	bf 01 00 00 00       	mov    $0x1,%edi
    23b9:	e8 42 f0 ff ff       	callq  1400 <exit@plt>
    23be:	48 8d 3d e0 20 00 00 	lea    0x20e0(%rip),%rdi        # 44a5 <_IO_stdin_used+0x4a5>
    23c5:	e8 d6 ee ff ff       	callq  12a0 <puts@plt>
    23ca:	48 8b 84 24 08 40 00 	mov    0x4008(%rsp),%rax
    23d1:	00 
    23d2:	64 48 33 04 25 28 00 	xor    %fs:0x28,%rax
    23d9:	00 00 
    23db:	0f 85 98 00 00 00    	jne    2479 <notify_server+0x218>
    23e1:	48 81 c4 18 40 00 00 	add    $0x4018,%rsp
    23e8:	5b                   	pop    %rbx
    23e9:	5d                   	pop    %rbp
    23ea:	c3                   	retq   
    23eb:	48 89 ea             	mov    %rbp,%rdx
    23ee:	48 8d 35 fb 21 00 00 	lea    0x21fb(%rip),%rsi        # 45f0 <_IO_stdin_used+0x5f0>
    23f5:	bf 01 00 00 00       	mov    $0x1,%edi
    23fa:	b8 00 00 00 00       	mov    $0x0,%eax
    23ff:	e8 ac ef ff ff       	callq  13b0 <__printf_chk@plt>
    2404:	48 8b 15 15 4c 00 00 	mov    0x4c15(%rip),%rdx        # 7020 <user_id>
    240b:	48 8d 35 9a 20 00 00 	lea    0x209a(%rip),%rsi        # 44ac <_IO_stdin_used+0x4ac>
    2412:	bf 01 00 00 00       	mov    $0x1,%edi
    2417:	b8 00 00 00 00       	mov    $0x0,%eax
    241c:	e8 8f ef ff ff       	callq  13b0 <__printf_chk@plt>
    2421:	48 8b 15 08 4c 00 00 	mov    0x4c08(%rip),%rdx        # 7030 <course>
    2428:	48 8d 35 8a 20 00 00 	lea    0x208a(%rip),%rsi        # 44b9 <_IO_stdin_used+0x4b9>
    242f:	bf 01 00 00 00       	mov    $0x1,%edi
    2434:	b8 00 00 00 00       	mov    $0x0,%eax
    2439:	e8 72 ef ff ff       	callq  13b0 <__printf_chk@plt>
    243e:	48 8b 15 e3 4b 00 00 	mov    0x4be3(%rip),%rdx        # 7028 <lab>
    2445:	48 8d 35 79 20 00 00 	lea    0x2079(%rip),%rsi        # 44c5 <_IO_stdin_used+0x4c5>
    244c:	bf 01 00 00 00       	mov    $0x1,%edi
    2451:	b8 00 00 00 00       	mov    $0x0,%eax
    2456:	e8 55 ef ff ff       	callq  13b0 <__printf_chk@plt>
    245b:	48 89 e2             	mov    %rsp,%rdx
    245e:	48 8d 35 69 20 00 00 	lea    0x2069(%rip),%rsi        # 44ce <_IO_stdin_used+0x4ce>
    2465:	bf 01 00 00 00       	mov    $0x1,%edi
    246a:	b8 00 00 00 00       	mov    $0x0,%eax
    246f:	e8 3c ef ff ff       	callq  13b0 <__printf_chk@plt>
    2474:	e9 51 ff ff ff       	jmpq   23ca <notify_server+0x169>
    2479:	e8 42 ee ff ff       	callq  12c0 <__stack_chk_fail@plt>

000000000000247e <validate>:
    247e:	f3 0f 1e fa          	endbr64 
    2482:	53                   	push   %rbx
    2483:	89 fb                	mov    %edi,%ebx
    2485:	83 3d 5c 4f 00 00 00 	cmpl   $0x0,0x4f5c(%rip)        # 73e8 <is_checker>
    248c:	74 72                	je     2500 <validate+0x82>
    248e:	39 3d 48 4f 00 00    	cmp    %edi,0x4f48(%rip)        # 73dc <vlevel>
    2494:	75 32                	jne    24c8 <validate+0x4a>
    2496:	8b 15 3c 4f 00 00    	mov    0x4f3c(%rip),%edx        # 73d8 <check_level>
    249c:	39 fa                	cmp    %edi,%edx
    249e:	75 3e                	jne    24de <validate+0x60>
    24a0:	0f be 15 61 5b 00 00 	movsbl 0x5b61(%rip),%edx        # 8008 <target_prefix>
    24a7:	4c 8d 05 52 4f 00 00 	lea    0x4f52(%rip),%r8        # 7400 <gets_buf>
    24ae:	89 f9                	mov    %edi,%ecx
    24b0:	48 8d 35 41 20 00 00 	lea    0x2041(%rip),%rsi        # 44f8 <_IO_stdin_used+0x4f8>
    24b7:	bf 01 00 00 00       	mov    $0x1,%edi
    24bc:	b8 00 00 00 00       	mov    $0x0,%eax
    24c1:	e8 ea ee ff ff       	callq  13b0 <__printf_chk@plt>
    24c6:	5b                   	pop    %rbx
    24c7:	c3                   	retq   
    24c8:	48 8d 3d 0b 20 00 00 	lea    0x200b(%rip),%rdi        # 44da <_IO_stdin_used+0x4da>
    24cf:	e8 cc ed ff ff       	callq  12a0 <puts@plt>
    24d4:	b8 00 00 00 00       	mov    $0x0,%eax
    24d9:	e8 ef fc ff ff       	callq  21cd <check_fail>
    24de:	89 f9                	mov    %edi,%ecx
    24e0:	48 8d 35 31 21 00 00 	lea    0x2131(%rip),%rsi        # 4618 <_IO_stdin_used+0x618>
    24e7:	bf 01 00 00 00       	mov    $0x1,%edi
    24ec:	b8 00 00 00 00       	mov    $0x0,%eax
    24f1:	e8 ba ee ff ff       	callq  13b0 <__printf_chk@plt>
    24f6:	b8 00 00 00 00       	mov    $0x0,%eax
    24fb:	e8 cd fc ff ff       	callq  21cd <check_fail>
    2500:	39 3d d6 4e 00 00    	cmp    %edi,0x4ed6(%rip)        # 73dc <vlevel>
    2506:	74 1a                	je     2522 <validate+0xa4>
    2508:	48 8d 3d cb 1f 00 00 	lea    0x1fcb(%rip),%rdi        # 44da <_IO_stdin_used+0x4da>
    250f:	e8 8c ed ff ff       	callq  12a0 <puts@plt>
    2514:	89 de                	mov    %ebx,%esi
    2516:	bf 00 00 00 00       	mov    $0x0,%edi
    251b:	e8 41 fd ff ff       	callq  2261 <notify_server>
    2520:	eb a4                	jmp    24c6 <validate+0x48>
    2522:	0f be 0d df 5a 00 00 	movsbl 0x5adf(%rip),%ecx        # 8008 <target_prefix>
    2529:	89 fa                	mov    %edi,%edx
    252b:	48 8d 35 0e 21 00 00 	lea    0x210e(%rip),%rsi        # 4640 <_IO_stdin_used+0x640>
    2532:	bf 01 00 00 00       	mov    $0x1,%edi
    2537:	b8 00 00 00 00       	mov    $0x0,%eax
    253c:	e8 6f ee ff ff       	callq  13b0 <__printf_chk@plt>
    2541:	89 de                	mov    %ebx,%esi
    2543:	bf 01 00 00 00       	mov    $0x1,%edi
    2548:	e8 14 fd ff ff       	callq  2261 <notify_server>
    254d:	e9 74 ff ff ff       	jmpq   24c6 <validate+0x48>

0000000000002552 <fail>:
    2552:	f3 0f 1e fa          	endbr64 
    2556:	48 83 ec 08          	sub    $0x8,%rsp
    255a:	83 3d 87 4e 00 00 00 	cmpl   $0x0,0x4e87(%rip)        # 73e8 <is_checker>
    2561:	75 11                	jne    2574 <fail+0x22>
    2563:	89 fe                	mov    %edi,%esi
    2565:	bf 00 00 00 00       	mov    $0x0,%edi
    256a:	e8 f2 fc ff ff       	callq  2261 <notify_server>
    256f:	48 83 c4 08          	add    $0x8,%rsp
    2573:	c3                   	retq   
    2574:	b8 00 00 00 00       	mov    $0x0,%eax
    2579:	e8 4f fc ff ff       	callq  21cd <check_fail>

000000000000257e <bushandler>:
    257e:	f3 0f 1e fa          	endbr64 
    2582:	50                   	push   %rax
    2583:	58                   	pop    %rax
    2584:	48 83 ec 08          	sub    $0x8,%rsp
    2588:	83 3d 59 4e 00 00 00 	cmpl   $0x0,0x4e59(%rip)        # 73e8 <is_checker>
    258f:	74 16                	je     25a7 <bushandler+0x29>
    2591:	48 8d 3d 75 1f 00 00 	lea    0x1f75(%rip),%rdi        # 450d <_IO_stdin_used+0x50d>
    2598:	e8 03 ed ff ff       	callq  12a0 <puts@plt>
    259d:	b8 00 00 00 00       	mov    $0x0,%eax
    25a2:	e8 26 fc ff ff       	callq  21cd <check_fail>
    25a7:	48 8d 3d ca 20 00 00 	lea    0x20ca(%rip),%rdi        # 4678 <_IO_stdin_used+0x678>
    25ae:	e8 ed ec ff ff       	callq  12a0 <puts@plt>
    25b3:	48 8d 3d 5d 1f 00 00 	lea    0x1f5d(%rip),%rdi        # 4517 <_IO_stdin_used+0x517>
    25ba:	e8 e1 ec ff ff       	callq  12a0 <puts@plt>
    25bf:	be 00 00 00 00       	mov    $0x0,%esi
    25c4:	bf 00 00 00 00       	mov    $0x0,%edi
    25c9:	e8 93 fc ff ff       	callq  2261 <notify_server>
    25ce:	bf 01 00 00 00       	mov    $0x1,%edi
    25d3:	e8 28 ee ff ff       	callq  1400 <exit@plt>

00000000000025d8 <seghandler>:
    25d8:	f3 0f 1e fa          	endbr64 
    25dc:	50                   	push   %rax
    25dd:	58                   	pop    %rax
    25de:	48 83 ec 08          	sub    $0x8,%rsp
    25e2:	83 3d ff 4d 00 00 00 	cmpl   $0x0,0x4dff(%rip)        # 73e8 <is_checker>
    25e9:	74 16                	je     2601 <seghandler+0x29>
    25eb:	48 8d 3d 3b 1f 00 00 	lea    0x1f3b(%rip),%rdi        # 452d <_IO_stdin_used+0x52d>
    25f2:	e8 a9 ec ff ff       	callq  12a0 <puts@plt>
    25f7:	b8 00 00 00 00       	mov    $0x0,%eax
    25fc:	e8 cc fb ff ff       	callq  21cd <check_fail>
    2601:	48 8d 3d 90 20 00 00 	lea    0x2090(%rip),%rdi        # 4698 <_IO_stdin_used+0x698>
    2608:	e8 93 ec ff ff       	callq  12a0 <puts@plt>
    260d:	48 8d 3d 03 1f 00 00 	lea    0x1f03(%rip),%rdi        # 4517 <_IO_stdin_used+0x517>
    2614:	e8 87 ec ff ff       	callq  12a0 <puts@plt>
    2619:	be 00 00 00 00       	mov    $0x0,%esi
    261e:	bf 00 00 00 00       	mov    $0x0,%edi
    2623:	e8 39 fc ff ff       	callq  2261 <notify_server>
    2628:	bf 01 00 00 00       	mov    $0x1,%edi
    262d:	e8 ce ed ff ff       	callq  1400 <exit@plt>

0000000000002632 <illegalhandler>:
    2632:	f3 0f 1e fa          	endbr64 
    2636:	50                   	push   %rax
    2637:	58                   	pop    %rax
    2638:	48 83 ec 08          	sub    $0x8,%rsp
    263c:	83 3d a5 4d 00 00 00 	cmpl   $0x0,0x4da5(%rip)        # 73e8 <is_checker>
    2643:	74 16                	je     265b <illegalhandler+0x29>
    2645:	48 8d 3d f4 1e 00 00 	lea    0x1ef4(%rip),%rdi        # 4540 <_IO_stdin_used+0x540>
    264c:	e8 4f ec ff ff       	callq  12a0 <puts@plt>
    2651:	b8 00 00 00 00       	mov    $0x0,%eax
    2656:	e8 72 fb ff ff       	callq  21cd <check_fail>
    265b:	48 8d 3d 5e 20 00 00 	lea    0x205e(%rip),%rdi        # 46c0 <_IO_stdin_used+0x6c0>
    2662:	e8 39 ec ff ff       	callq  12a0 <puts@plt>
    2667:	48 8d 3d a9 1e 00 00 	lea    0x1ea9(%rip),%rdi        # 4517 <_IO_stdin_used+0x517>
    266e:	e8 2d ec ff ff       	callq  12a0 <puts@plt>
    2673:	be 00 00 00 00       	mov    $0x0,%esi
    2678:	bf 00 00 00 00       	mov    $0x0,%edi
    267d:	e8 df fb ff ff       	callq  2261 <notify_server>
    2682:	bf 01 00 00 00       	mov    $0x1,%edi
    2687:	e8 74 ed ff ff       	callq  1400 <exit@plt>

000000000000268c <sigalrmhandler>:
    268c:	f3 0f 1e fa          	endbr64 
    2690:	50                   	push   %rax
    2691:	58                   	pop    %rax
    2692:	48 83 ec 08          	sub    $0x8,%rsp
    2696:	83 3d 4b 4d 00 00 00 	cmpl   $0x0,0x4d4b(%rip)        # 73e8 <is_checker>
    269d:	74 16                	je     26b5 <sigalrmhandler+0x29>
    269f:	48 8d 3d ae 1e 00 00 	lea    0x1eae(%rip),%rdi        # 4554 <_IO_stdin_used+0x554>
    26a6:	e8 f5 eb ff ff       	callq  12a0 <puts@plt>
    26ab:	b8 00 00 00 00       	mov    $0x0,%eax
    26b0:	e8 18 fb ff ff       	callq  21cd <check_fail>
    26b5:	ba 05 00 00 00       	mov    $0x5,%edx
    26ba:	48 8d 35 2f 20 00 00 	lea    0x202f(%rip),%rsi        # 46f0 <_IO_stdin_used+0x6f0>
    26c1:	bf 01 00 00 00       	mov    $0x1,%edi
    26c6:	b8 00 00 00 00       	mov    $0x0,%eax
    26cb:	e8 e0 ec ff ff       	callq  13b0 <__printf_chk@plt>
    26d0:	be 00 00 00 00       	mov    $0x0,%esi
    26d5:	bf 00 00 00 00       	mov    $0x0,%edi
    26da:	e8 82 fb ff ff       	callq  2261 <notify_server>
    26df:	bf 01 00 00 00       	mov    $0x1,%edi
    26e4:	e8 17 ed ff ff       	callq  1400 <exit@plt>

00000000000026e9 <launch>:
    26e9:	f3 0f 1e fa          	endbr64 
    26ed:	55                   	push   %rbp
    26ee:	48 89 e5             	mov    %rsp,%rbp
    26f1:	48 83 ec 10          	sub    $0x10,%rsp
    26f5:	48 89 fa             	mov    %rdi,%rdx
    26f8:	64 48 8b 04 25 28 00 	mov    %fs:0x28,%rax
    26ff:	00 00 
    2701:	48 89 45 f8          	mov    %rax,-0x8(%rbp)
    2705:	31 c0                	xor    %eax,%eax
    2707:	48 8d 47 17          	lea    0x17(%rdi),%rax
    270b:	48 89 c1             	mov    %rax,%rcx
    270e:	48 83 e1 f0          	and    $0xfffffffffffffff0,%rcx
    2712:	48 25 00 f0 ff ff    	and    $0xfffffffffffff000,%rax
    2718:	48 89 e6             	mov    %rsp,%rsi
    271b:	48 29 c6             	sub    %rax,%rsi
    271e:	48 89 f0             	mov    %rsi,%rax
    2721:	48 39 c4             	cmp    %rax,%rsp
    2724:	74 12                	je     2738 <launch+0x4f>
    2726:	48 81 ec 00 10 00 00 	sub    $0x1000,%rsp
    272d:	48 83 8c 24 f8 0f 00 	orq    $0x0,0xff8(%rsp)
    2734:	00 00 
    2736:	eb e9                	jmp    2721 <launch+0x38>
    2738:	48 89 c8             	mov    %rcx,%rax
    273b:	25 ff 0f 00 00       	and    $0xfff,%eax
    2740:	48 29 c4             	sub    %rax,%rsp
    2743:	48 85 c0             	test   %rax,%rax
    2746:	74 06                	je     274e <launch+0x65>
    2748:	48 83 4c 04 f8 00    	orq    $0x0,-0x8(%rsp,%rax,1)
    274e:	48 8d 7c 24 0f       	lea    0xf(%rsp),%rdi
    2753:	48 83 e7 f0          	and    $0xfffffffffffffff0,%rdi
    2757:	be f4 00 00 00       	mov    $0xf4,%esi
    275c:	e8 7f eb ff ff       	callq  12e0 <memset@plt>
    2761:	48 8b 05 18 4c 00 00 	mov    0x4c18(%rip),%rax        # 7380 <stdin@@GLIBC_2.2.5>
    2768:	48 39 05 61 4c 00 00 	cmp    %rax,0x4c61(%rip)        # 73d0 <infile>
    276f:	74 3a                	je     27ab <launch+0xc2>
    2771:	c7 05 61 4c 00 00 00 	movl   $0x0,0x4c61(%rip)        # 73dc <vlevel>
    2778:	00 00 00 
    277b:	b8 00 00 00 00       	mov    $0x0,%eax
    2780:	e8 aa f9 ff ff       	callq  212f <test>
    2785:	83 3d 5c 4c 00 00 00 	cmpl   $0x0,0x4c5c(%rip)        # 73e8 <is_checker>
    278c:	75 35                	jne    27c3 <launch+0xda>
    278e:	48 8d 3d df 1d 00 00 	lea    0x1ddf(%rip),%rdi        # 4574 <_IO_stdin_used+0x574>
    2795:	e8 06 eb ff ff       	callq  12a0 <puts@plt>
    279a:	48 8b 45 f8          	mov    -0x8(%rbp),%rax
    279e:	64 48 33 04 25 28 00 	xor    %fs:0x28,%rax
    27a5:	00 00 
    27a7:	75 30                	jne    27d9 <launch+0xf0>
    27a9:	c9                   	leaveq 
    27aa:	c3                   	retq   
    27ab:	48 8d 35 aa 1d 00 00 	lea    0x1daa(%rip),%rsi        # 455c <_IO_stdin_used+0x55c>
    27b2:	bf 01 00 00 00       	mov    $0x1,%edi
    27b7:	b8 00 00 00 00       	mov    $0x0,%eax
    27bc:	e8 ef eb ff ff       	callq  13b0 <__printf_chk@plt>
    27c1:	eb ae                	jmp    2771 <launch+0x88>
    27c3:	48 8d 3d 9f 1d 00 00 	lea    0x1d9f(%rip),%rdi        # 4569 <_IO_stdin_used+0x569>
    27ca:	e8 d1 ea ff ff       	callq  12a0 <puts@plt>
    27cf:	b8 00 00 00 00       	mov    $0x0,%eax
    27d4:	e8 f4 f9 ff ff       	callq  21cd <check_fail>
    27d9:	e8 e2 ea ff ff       	callq  12c0 <__stack_chk_fail@plt>

00000000000027de <stable_launch>:
    27de:	f3 0f 1e fa          	endbr64 
    27e2:	53                   	push   %rbx
    27e3:	48 89 3d de 4b 00 00 	mov    %rdi,0x4bde(%rip)        # 73c8 <global_offset>
    27ea:	41 b9 00 00 00 00    	mov    $0x0,%r9d
    27f0:	41 b8 00 00 00 00    	mov    $0x0,%r8d
    27f6:	b9 32 01 00 00       	mov    $0x132,%ecx
    27fb:	ba 07 00 00 00       	mov    $0x7,%edx
    2800:	be 00 00 10 00       	mov    $0x100000,%esi
    2805:	bf 00 60 58 55       	mov    $0x55586000,%edi
    280a:	e8 c1 ea ff ff       	callq  12d0 <mmap@plt>
    280f:	48 89 c3             	mov    %rax,%rbx
    2812:	48 3d 00 60 58 55    	cmp    $0x55586000,%rax
    2818:	75 43                	jne    285d <stable_launch+0x7f>
    281a:	48 8d 90 f8 ff 0f 00 	lea    0xffff8(%rax),%rdx
    2821:	48 89 15 e8 57 00 00 	mov    %rdx,0x57e8(%rip)        # 8010 <stack_top>
    2828:	48 89 e0             	mov    %rsp,%rax
    282b:	48 89 d4             	mov    %rdx,%rsp
    282e:	48 89 c2             	mov    %rax,%rdx
    2831:	48 89 15 88 4b 00 00 	mov    %rdx,0x4b88(%rip)        # 73c0 <global_save_stack>
    2838:	48 8b 3d 89 4b 00 00 	mov    0x4b89(%rip),%rdi        # 73c8 <global_offset>
    283f:	e8 a5 fe ff ff       	callq  26e9 <launch>
    2844:	48 8b 05 75 4b 00 00 	mov    0x4b75(%rip),%rax        # 73c0 <global_save_stack>
    284b:	48 89 c4             	mov    %rax,%rsp
    284e:	be 00 00 10 00       	mov    $0x100000,%esi
    2853:	48 89 df             	mov    %rbx,%rdi
    2856:	e8 45 eb ff ff       	callq  13a0 <munmap@plt>
    285b:	5b                   	pop    %rbx
    285c:	c3                   	retq   
    285d:	be 00 00 10 00       	mov    $0x100000,%esi
    2862:	48 89 c7             	mov    %rax,%rdi
    2865:	e8 36 eb ff ff       	callq  13a0 <munmap@plt>
    286a:	b9 00 60 58 55       	mov    $0x55586000,%ecx
    286f:	48 8d 15 b2 1e 00 00 	lea    0x1eb2(%rip),%rdx        # 4728 <_IO_stdin_used+0x728>
    2876:	be 01 00 00 00       	mov    $0x1,%esi
    287b:	48 8b 3d 1e 4b 00 00 	mov    0x4b1e(%rip),%rdi        # 73a0 <stderr@@GLIBC_2.2.5>
    2882:	b8 00 00 00 00       	mov    $0x0,%eax
    2887:	e8 94 eb ff ff       	callq  1420 <__fprintf_chk@plt>
    288c:	bf 01 00 00 00       	mov    $0x1,%edi
    2891:	e8 6a eb ff ff       	callq  1400 <exit@plt>

0000000000002896 <rio_readinitb>:
    2896:	89 37                	mov    %esi,(%rdi)
    2898:	c7 47 04 00 00 00 00 	movl   $0x0,0x4(%rdi)
    289f:	48 8d 47 10          	lea    0x10(%rdi),%rax
    28a3:	48 89 47 08          	mov    %rax,0x8(%rdi)
    28a7:	c3                   	retq   

00000000000028a8 <sigalrm_handler>:
    28a8:	f3 0f 1e fa          	endbr64 
    28ac:	50                   	push   %rax
    28ad:	58                   	pop    %rax
    28ae:	48 83 ec 08          	sub    $0x8,%rsp
    28b2:	b9 00 00 00 00       	mov    $0x0,%ecx
    28b7:	48 8d 15 a2 1e 00 00 	lea    0x1ea2(%rip),%rdx        # 4760 <trans_char+0x10>
    28be:	be 01 00 00 00       	mov    $0x1,%esi
    28c3:	48 8b 3d d6 4a 00 00 	mov    0x4ad6(%rip),%rdi        # 73a0 <stderr@@GLIBC_2.2.5>
    28ca:	b8 00 00 00 00       	mov    $0x0,%eax
    28cf:	e8 4c eb ff ff       	callq  1420 <__fprintf_chk@plt>
    28d4:	bf 01 00 00 00       	mov    $0x1,%edi
    28d9:	e8 22 eb ff ff       	callq  1400 <exit@plt>

00000000000028de <rio_writen>:
    28de:	41 55                	push   %r13
    28e0:	41 54                	push   %r12
    28e2:	55                   	push   %rbp
    28e3:	53                   	push   %rbx
    28e4:	48 83 ec 08          	sub    $0x8,%rsp
    28e8:	41 89 fc             	mov    %edi,%r12d
    28eb:	48 89 f5             	mov    %rsi,%rbp
    28ee:	49 89 d5             	mov    %rdx,%r13
    28f1:	48 89 d3             	mov    %rdx,%rbx
    28f4:	eb 06                	jmp    28fc <rio_writen+0x1e>
    28f6:	48 29 c3             	sub    %rax,%rbx
    28f9:	48 01 c5             	add    %rax,%rbp
    28fc:	48 85 db             	test   %rbx,%rbx
    28ff:	74 24                	je     2925 <rio_writen+0x47>
    2901:	48 89 da             	mov    %rbx,%rdx
    2904:	48 89 ee             	mov    %rbp,%rsi
    2907:	44 89 e7             	mov    %r12d,%edi
    290a:	e8 a1 e9 ff ff       	callq  12b0 <write@plt>
    290f:	48 85 c0             	test   %rax,%rax
    2912:	7f e2                	jg     28f6 <rio_writen+0x18>
    2914:	e8 47 e9 ff ff       	callq  1260 <__errno_location@plt>
    2919:	83 38 04             	cmpl   $0x4,(%rax)
    291c:	75 15                	jne    2933 <rio_writen+0x55>
    291e:	b8 00 00 00 00       	mov    $0x0,%eax
    2923:	eb d1                	jmp    28f6 <rio_writen+0x18>
    2925:	4c 89 e8             	mov    %r13,%rax
    2928:	48 83 c4 08          	add    $0x8,%rsp
    292c:	5b                   	pop    %rbx
    292d:	5d                   	pop    %rbp
    292e:	41 5c                	pop    %r12
    2930:	41 5d                	pop    %r13
    2932:	c3                   	retq   
    2933:	48 c7 c0 ff ff ff ff 	mov    $0xffffffffffffffff,%rax
    293a:	eb ec                	jmp    2928 <rio_writen+0x4a>

000000000000293c <rio_read>:
    293c:	41 55                	push   %r13
    293e:	41 54                	push   %r12
    2940:	55                   	push   %rbp
    2941:	53                   	push   %rbx
    2942:	48 83 ec 08          	sub    $0x8,%rsp
    2946:	48 89 fb             	mov    %rdi,%rbx
    2949:	49 89 f5             	mov    %rsi,%r13
    294c:	49 89 d4             	mov    %rdx,%r12
    294f:	eb 17                	jmp    2968 <rio_read+0x2c>
    2951:	e8 0a e9 ff ff       	callq  1260 <__errno_location@plt>
    2956:	83 38 04             	cmpl   $0x4,(%rax)
    2959:	74 0d                	je     2968 <rio_read+0x2c>
    295b:	48 c7 c0 ff ff ff ff 	mov    $0xffffffffffffffff,%rax
    2962:	eb 54                	jmp    29b8 <rio_read+0x7c>
    2964:	48 89 6b 08          	mov    %rbp,0x8(%rbx)
    2968:	8b 6b 04             	mov    0x4(%rbx),%ebp
    296b:	85 ed                	test   %ebp,%ebp
    296d:	7f 23                	jg     2992 <rio_read+0x56>
    296f:	48 8d 6b 10          	lea    0x10(%rbx),%rbp
    2973:	8b 3b                	mov    (%rbx),%edi
    2975:	ba 00 20 00 00       	mov    $0x2000,%edx
    297a:	48 89 ee             	mov    %rbp,%rsi
    297d:	e8 8e e9 ff ff       	callq  1310 <read@plt>
    2982:	89 43 04             	mov    %eax,0x4(%rbx)
    2985:	85 c0                	test   %eax,%eax
    2987:	78 c8                	js     2951 <rio_read+0x15>
    2989:	75 d9                	jne    2964 <rio_read+0x28>
    298b:	b8 00 00 00 00       	mov    $0x0,%eax
    2990:	eb 26                	jmp    29b8 <rio_read+0x7c>
    2992:	89 e8                	mov    %ebp,%eax
    2994:	4c 39 e0             	cmp    %r12,%rax
    2997:	72 03                	jb     299c <rio_read+0x60>
    2999:	44 89 e5             	mov    %r12d,%ebp
    299c:	4c 63 e5             	movslq %ebp,%r12
    299f:	48 8b 73 08          	mov    0x8(%rbx),%rsi
    29a3:	4c 89 e2             	mov    %r12,%rdx
    29a6:	4c 89 ef             	mov    %r13,%rdi
    29a9:	e8 b2 e9 ff ff       	callq  1360 <memcpy@plt>
    29ae:	4c 01 63 08          	add    %r12,0x8(%rbx)
    29b2:	29 6b 04             	sub    %ebp,0x4(%rbx)
    29b5:	4c 89 e0             	mov    %r12,%rax
    29b8:	48 83 c4 08          	add    $0x8,%rsp
    29bc:	5b                   	pop    %rbx
    29bd:	5d                   	pop    %rbp
    29be:	41 5c                	pop    %r12
    29c0:	41 5d                	pop    %r13
    29c2:	c3                   	retq   

00000000000029c3 <rio_readlineb>:
    29c3:	41 55                	push   %r13
    29c5:	41 54                	push   %r12
    29c7:	55                   	push   %rbp
    29c8:	53                   	push   %rbx
    29c9:	48 83 ec 18          	sub    $0x18,%rsp
    29cd:	49 89 fd             	mov    %rdi,%r13
    29d0:	48 89 f5             	mov    %rsi,%rbp
    29d3:	49 89 d4             	mov    %rdx,%r12
    29d6:	64 48 8b 04 25 28 00 	mov    %fs:0x28,%rax
    29dd:	00 00 
    29df:	48 89 44 24 08       	mov    %rax,0x8(%rsp)
    29e4:	31 c0                	xor    %eax,%eax
    29e6:	bb 01 00 00 00       	mov    $0x1,%ebx
    29eb:	eb 18                	jmp    2a05 <rio_readlineb+0x42>
    29ed:	85 c0                	test   %eax,%eax
    29ef:	75 65                	jne    2a56 <rio_readlineb+0x93>
    29f1:	48 83 fb 01          	cmp    $0x1,%rbx
    29f5:	75 3d                	jne    2a34 <rio_readlineb+0x71>
    29f7:	b8 00 00 00 00       	mov    $0x0,%eax
    29fc:	eb 3d                	jmp    2a3b <rio_readlineb+0x78>
    29fe:	48 83 c3 01          	add    $0x1,%rbx
    2a02:	48 89 d5             	mov    %rdx,%rbp
    2a05:	4c 39 e3             	cmp    %r12,%rbx
    2a08:	73 2a                	jae    2a34 <rio_readlineb+0x71>
    2a0a:	48 8d 74 24 07       	lea    0x7(%rsp),%rsi
    2a0f:	ba 01 00 00 00       	mov    $0x1,%edx
    2a14:	4c 89 ef             	mov    %r13,%rdi
    2a17:	e8 20 ff ff ff       	callq  293c <rio_read>
    2a1c:	83 f8 01             	cmp    $0x1,%eax
    2a1f:	75 cc                	jne    29ed <rio_readlineb+0x2a>
    2a21:	48 8d 55 01          	lea    0x1(%rbp),%rdx
    2a25:	0f b6 44 24 07       	movzbl 0x7(%rsp),%eax
    2a2a:	88 45 00             	mov    %al,0x0(%rbp)
    2a2d:	3c 0a                	cmp    $0xa,%al
    2a2f:	75 cd                	jne    29fe <rio_readlineb+0x3b>
    2a31:	48 89 d5             	mov    %rdx,%rbp
    2a34:	c6 45 00 00          	movb   $0x0,0x0(%rbp)
    2a38:	48 89 d8             	mov    %rbx,%rax
    2a3b:	48 8b 4c 24 08       	mov    0x8(%rsp),%rcx
    2a40:	64 48 33 0c 25 28 00 	xor    %fs:0x28,%rcx
    2a47:	00 00 
    2a49:	75 14                	jne    2a5f <rio_readlineb+0x9c>
    2a4b:	48 83 c4 18          	add    $0x18,%rsp
    2a4f:	5b                   	pop    %rbx
    2a50:	5d                   	pop    %rbp
    2a51:	41 5c                	pop    %r12
    2a53:	41 5d                	pop    %r13
    2a55:	c3                   	retq   
    2a56:	48 c7 c0 ff ff ff ff 	mov    $0xffffffffffffffff,%rax
    2a5d:	eb dc                	jmp    2a3b <rio_readlineb+0x78>
    2a5f:	e8 5c e8 ff ff       	callq  12c0 <__stack_chk_fail@plt>

0000000000002a64 <urlencode>:
    2a64:	41 54                	push   %r12
    2a66:	55                   	push   %rbp
    2a67:	53                   	push   %rbx
    2a68:	48 83 ec 10          	sub    $0x10,%rsp
    2a6c:	48 89 fb             	mov    %rdi,%rbx
    2a6f:	48 89 f5             	mov    %rsi,%rbp
    2a72:	64 48 8b 04 25 28 00 	mov    %fs:0x28,%rax
    2a79:	00 00 
    2a7b:	48 89 44 24 08       	mov    %rax,0x8(%rsp)
    2a80:	31 c0                	xor    %eax,%eax
    2a82:	48 c7 c1 ff ff ff ff 	mov    $0xffffffffffffffff,%rcx
    2a89:	f2 ae                	repnz scas %es:(%rdi),%al
    2a8b:	48 f7 d1             	not    %rcx
    2a8e:	8d 41 ff             	lea    -0x1(%rcx),%eax
    2a91:	eb 0f                	jmp    2aa2 <urlencode+0x3e>
    2a93:	44 88 45 00          	mov    %r8b,0x0(%rbp)
    2a97:	48 8d 6d 01          	lea    0x1(%rbp),%rbp
    2a9b:	48 83 c3 01          	add    $0x1,%rbx
    2a9f:	44 89 e0             	mov    %r12d,%eax
    2aa2:	44 8d 60 ff          	lea    -0x1(%rax),%r12d
    2aa6:	85 c0                	test   %eax,%eax
    2aa8:	0f 84 a8 00 00 00    	je     2b56 <urlencode+0xf2>
    2aae:	44 0f b6 03          	movzbl (%rbx),%r8d
    2ab2:	41 80 f8 2a          	cmp    $0x2a,%r8b
    2ab6:	0f 94 c2             	sete   %dl
    2ab9:	41 80 f8 2d          	cmp    $0x2d,%r8b
    2abd:	0f 94 c0             	sete   %al
    2ac0:	08 c2                	or     %al,%dl
    2ac2:	75 cf                	jne    2a93 <urlencode+0x2f>
    2ac4:	41 80 f8 2e          	cmp    $0x2e,%r8b
    2ac8:	74 c9                	je     2a93 <urlencode+0x2f>
    2aca:	41 80 f8 5f          	cmp    $0x5f,%r8b
    2ace:	74 c3                	je     2a93 <urlencode+0x2f>
    2ad0:	41 8d 40 d0          	lea    -0x30(%r8),%eax
    2ad4:	3c 09                	cmp    $0x9,%al
    2ad6:	76 bb                	jbe    2a93 <urlencode+0x2f>
    2ad8:	41 8d 40 bf          	lea    -0x41(%r8),%eax
    2adc:	3c 19                	cmp    $0x19,%al
    2ade:	76 b3                	jbe    2a93 <urlencode+0x2f>
    2ae0:	41 8d 40 9f          	lea    -0x61(%r8),%eax
    2ae4:	3c 19                	cmp    $0x19,%al
    2ae6:	76 ab                	jbe    2a93 <urlencode+0x2f>
    2ae8:	41 80 f8 20          	cmp    $0x20,%r8b
    2aec:	74 56                	je     2b44 <urlencode+0xe0>
    2aee:	41 8d 40 e0          	lea    -0x20(%r8),%eax
    2af2:	3c 5f                	cmp    $0x5f,%al
    2af4:	0f 96 c2             	setbe  %dl
    2af7:	41 80 f8 09          	cmp    $0x9,%r8b
    2afb:	0f 94 c0             	sete   %al
    2afe:	08 c2                	or     %al,%dl
    2b00:	74 4f                	je     2b51 <urlencode+0xed>
    2b02:	48 89 e7             	mov    %rsp,%rdi
    2b05:	45 0f b6 c0          	movzbl %r8b,%r8d
    2b09:	48 8d 0d e5 1c 00 00 	lea    0x1ce5(%rip),%rcx        # 47f5 <trans_char+0xa5>
    2b10:	ba 08 00 00 00       	mov    $0x8,%edx
    2b15:	be 01 00 00 00       	mov    $0x1,%esi
    2b1a:	b8 00 00 00 00       	mov    $0x0,%eax
    2b1f:	e8 1c e9 ff ff       	callq  1440 <__sprintf_chk@plt>
    2b24:	0f b6 04 24          	movzbl (%rsp),%eax
    2b28:	88 45 00             	mov    %al,0x0(%rbp)
    2b2b:	0f b6 44 24 01       	movzbl 0x1(%rsp),%eax
    2b30:	88 45 01             	mov    %al,0x1(%rbp)
    2b33:	0f b6 44 24 02       	movzbl 0x2(%rsp),%eax
    2b38:	88 45 02             	mov    %al,0x2(%rbp)
    2b3b:	48 8d 6d 03          	lea    0x3(%rbp),%rbp
    2b3f:	e9 57 ff ff ff       	jmpq   2a9b <urlencode+0x37>
    2b44:	c6 45 00 2b          	movb   $0x2b,0x0(%rbp)
    2b48:	48 8d 6d 01          	lea    0x1(%rbp),%rbp
    2b4c:	e9 4a ff ff ff       	jmpq   2a9b <urlencode+0x37>
    2b51:	b8 ff ff ff ff       	mov    $0xffffffff,%eax
    2b56:	48 8b 74 24 08       	mov    0x8(%rsp),%rsi
    2b5b:	64 48 33 34 25 28 00 	xor    %fs:0x28,%rsi
    2b62:	00 00 
    2b64:	75 09                	jne    2b6f <urlencode+0x10b>
    2b66:	48 83 c4 10          	add    $0x10,%rsp
    2b6a:	5b                   	pop    %rbx
    2b6b:	5d                   	pop    %rbp
    2b6c:	41 5c                	pop    %r12
    2b6e:	c3                   	retq   
    2b6f:	e8 4c e7 ff ff       	callq  12c0 <__stack_chk_fail@plt>

0000000000002b74 <submitr>:
    2b74:	f3 0f 1e fa          	endbr64 
    2b78:	41 57                	push   %r15
    2b7a:	41 56                	push   %r14
    2b7c:	41 55                	push   %r13
    2b7e:	41 54                	push   %r12
    2b80:	55                   	push   %rbp
    2b81:	53                   	push   %rbx
    2b82:	4c 8d 9c 24 00 60 ff 	lea    -0xa000(%rsp),%r11
    2b89:	ff 
    2b8a:	48 81 ec 00 10 00 00 	sub    $0x1000,%rsp
    2b91:	48 83 0c 24 00       	orq    $0x0,(%rsp)
    2b96:	4c 39 dc             	cmp    %r11,%rsp
    2b99:	75 ef                	jne    2b8a <submitr+0x16>
    2b9b:	48 83 ec 68          	sub    $0x68,%rsp
    2b9f:	49 89 fc             	mov    %rdi,%r12
    2ba2:	89 74 24 14          	mov    %esi,0x14(%rsp)
    2ba6:	49 89 d6             	mov    %rdx,%r14
    2ba9:	48 89 4c 24 08       	mov    %rcx,0x8(%rsp)
    2bae:	4c 89 44 24 18       	mov    %r8,0x18(%rsp)
    2bb3:	4d 89 cd             	mov    %r9,%r13
    2bb6:	48 8b ac 24 a0 a0 00 	mov    0xa0a0(%rsp),%rbp
    2bbd:	00 
    2bbe:	64 48 8b 04 25 28 00 	mov    %fs:0x28,%rax
    2bc5:	00 00 
    2bc7:	48 89 84 24 58 a0 00 	mov    %rax,0xa058(%rsp)
    2bce:	00 
    2bcf:	31 c0                	xor    %eax,%eax
    2bd1:	c7 44 24 2c 00 00 00 	movl   $0x0,0x2c(%rsp)
    2bd8:	00 
    2bd9:	ba 00 00 00 00       	mov    $0x0,%edx
    2bde:	be 01 00 00 00       	mov    $0x1,%esi
    2be3:	bf 02 00 00 00       	mov    $0x2,%edi
    2be8:	e8 63 e8 ff ff       	callq  1450 <socket@plt>
    2bed:	85 c0                	test   %eax,%eax
    2bef:	0f 88 a0 02 00 00    	js     2e95 <submitr+0x321>
    2bf5:	89 c3                	mov    %eax,%ebx
    2bf7:	4c 89 e7             	mov    %r12,%rdi
    2bfa:	e8 31 e7 ff ff       	callq  1330 <gethostbyname@plt>
    2bff:	48 85 c0             	test   %rax,%rax
    2c02:	0f 84 d9 02 00 00    	je     2ee1 <submitr+0x36d>
    2c08:	4c 8d 7c 24 30       	lea    0x30(%rsp),%r15
    2c0d:	48 c7 44 24 30 00 00 	movq   $0x0,0x30(%rsp)
    2c14:	00 00 
    2c16:	48 c7 44 24 38 00 00 	movq   $0x0,0x38(%rsp)
    2c1d:	00 00 
    2c1f:	66 c7 44 24 30 02 00 	movw   $0x2,0x30(%rsp)
    2c26:	48 63 50 14          	movslq 0x14(%rax),%rdx
    2c2a:	48 8b 40 18          	mov    0x18(%rax),%rax
    2c2e:	48 8b 30             	mov    (%rax),%rsi
    2c31:	48 8d 7c 24 34       	lea    0x34(%rsp),%rdi
    2c36:	b9 0c 00 00 00       	mov    $0xc,%ecx
    2c3b:	e8 00 e7 ff ff       	callq  1340 <__memmove_chk@plt>
    2c40:	0f b7 74 24 14       	movzwl 0x14(%rsp),%esi
    2c45:	66 c1 c6 08          	rol    $0x8,%si
    2c49:	66 89 74 24 32       	mov    %si,0x32(%rsp)
    2c4e:	ba 10 00 00 00       	mov    $0x10,%edx
    2c53:	4c 89 fe             	mov    %r15,%rsi
    2c56:	89 df                	mov    %ebx,%edi
    2c58:	e8 b3 e7 ff ff       	callq  1410 <connect@plt>
    2c5d:	85 c0                	test   %eax,%eax
    2c5f:	0f 88 e4 02 00 00    	js     2f49 <submitr+0x3d5>
    2c65:	49 c7 c0 ff ff ff ff 	mov    $0xffffffffffffffff,%r8
    2c6c:	b8 00 00 00 00       	mov    $0x0,%eax
    2c71:	4c 89 c1             	mov    %r8,%rcx
    2c74:	4c 89 ef             	mov    %r13,%rdi
    2c77:	f2 ae                	repnz scas %es:(%rdi),%al
    2c79:	48 89 ca             	mov    %rcx,%rdx
    2c7c:	48 f7 d2             	not    %rdx
    2c7f:	4c 89 c1             	mov    %r8,%rcx
    2c82:	4c 89 f7             	mov    %r14,%rdi
    2c85:	f2 ae                	repnz scas %es:(%rdi),%al
    2c87:	48 f7 d1             	not    %rcx
    2c8a:	48 89 ce             	mov    %rcx,%rsi
    2c8d:	4c 89 c1             	mov    %r8,%rcx
    2c90:	48 8b 7c 24 08       	mov    0x8(%rsp),%rdi
    2c95:	f2 ae                	repnz scas %es:(%rdi),%al
    2c97:	48 f7 d1             	not    %rcx
    2c9a:	48 8d 74 0e fe       	lea    -0x2(%rsi,%rcx,1),%rsi
    2c9f:	4c 89 c1             	mov    %r8,%rcx
    2ca2:	48 8b 7c 24 18       	mov    0x18(%rsp),%rdi
    2ca7:	f2 ae                	repnz scas %es:(%rdi),%al
    2ca9:	48 89 c8             	mov    %rcx,%rax
    2cac:	48 f7 d0             	not    %rax
    2caf:	48 8d 4c 06 ff       	lea    -0x1(%rsi,%rax,1),%rcx
    2cb4:	48 8d 44 52 fd       	lea    -0x3(%rdx,%rdx,2),%rax
    2cb9:	48 8d 84 01 80 00 00 	lea    0x80(%rcx,%rax,1),%rax
    2cc0:	00 
    2cc1:	48 3d 00 20 00 00    	cmp    $0x2000,%rax
    2cc7:	0f 87 d6 02 00 00    	ja     2fa3 <submitr+0x42f>
    2ccd:	48 8d b4 24 50 40 00 	lea    0x4050(%rsp),%rsi
    2cd4:	00 
    2cd5:	b9 00 04 00 00       	mov    $0x400,%ecx
    2cda:	b8 00 00 00 00       	mov    $0x0,%eax
    2cdf:	48 89 f7             	mov    %rsi,%rdi
    2ce2:	f3 48 ab             	rep stos %rax,%es:(%rdi)
    2ce5:	4c 89 ef             	mov    %r13,%rdi
    2ce8:	e8 77 fd ff ff       	callq  2a64 <urlencode>
    2ced:	85 c0                	test   %eax,%eax
    2cef:	0f 88 21 03 00 00    	js     3016 <submitr+0x4a2>
    2cf5:	4c 8d bc 24 50 20 00 	lea    0x2050(%rsp),%r15
    2cfc:	00 
    2cfd:	41 54                	push   %r12
    2cff:	48 8d 84 24 58 40 00 	lea    0x4058(%rsp),%rax
    2d06:	00 
    2d07:	50                   	push   %rax
    2d08:	4d 89 f1             	mov    %r14,%r9
    2d0b:	4c 8b 44 24 18       	mov    0x18(%rsp),%r8
    2d10:	48 8d 0d 71 1a 00 00 	lea    0x1a71(%rip),%rcx        # 4788 <trans_char+0x38>
    2d17:	ba 00 20 00 00       	mov    $0x2000,%edx
    2d1c:	be 01 00 00 00       	mov    $0x1,%esi
    2d21:	4c 89 ff             	mov    %r15,%rdi
    2d24:	b8 00 00 00 00       	mov    $0x0,%eax
    2d29:	e8 12 e7 ff ff       	callq  1440 <__sprintf_chk@plt>
    2d2e:	48 c7 c1 ff ff ff ff 	mov    $0xffffffffffffffff,%rcx
    2d35:	b8 00 00 00 00       	mov    $0x0,%eax
    2d3a:	4c 89 ff             	mov    %r15,%rdi
    2d3d:	f2 ae                	repnz scas %es:(%rdi),%al
    2d3f:	48 f7 d1             	not    %rcx
    2d42:	48 8d 51 ff          	lea    -0x1(%rcx),%rdx
    2d46:	4c 89 fe             	mov    %r15,%rsi
    2d49:	89 df                	mov    %ebx,%edi
    2d4b:	e8 8e fb ff ff       	callq  28de <rio_writen>
    2d50:	48 83 c4 10          	add    $0x10,%rsp
    2d54:	48 85 c0             	test   %rax,%rax
    2d57:	0f 88 44 03 00 00    	js     30a1 <submitr+0x52d>
    2d5d:	4c 8d 64 24 40       	lea    0x40(%rsp),%r12
    2d62:	89 de                	mov    %ebx,%esi
    2d64:	4c 89 e7             	mov    %r12,%rdi
    2d67:	e8 2a fb ff ff       	callq  2896 <rio_readinitb>
    2d6c:	48 8d b4 24 50 20 00 	lea    0x2050(%rsp),%rsi
    2d73:	00 
    2d74:	ba 00 20 00 00       	mov    $0x2000,%edx
    2d79:	4c 89 e7             	mov    %r12,%rdi
    2d7c:	e8 42 fc ff ff       	callq  29c3 <rio_readlineb>
    2d81:	48 85 c0             	test   %rax,%rax
    2d84:	0f 8e 86 03 00 00    	jle    3110 <submitr+0x59c>
    2d8a:	48 8d 4c 24 2c       	lea    0x2c(%rsp),%rcx
    2d8f:	48 8d 94 24 50 60 00 	lea    0x6050(%rsp),%rdx
    2d96:	00 
    2d97:	48 8d bc 24 50 20 00 	lea    0x2050(%rsp),%rdi
    2d9e:	00 
    2d9f:	4c 8d 84 24 50 80 00 	lea    0x8050(%rsp),%r8
    2da6:	00 
    2da7:	48 8d 35 4e 1a 00 00 	lea    0x1a4e(%rip),%rsi        # 47fc <trans_char+0xac>
    2dae:	b8 00 00 00 00       	mov    $0x0,%eax
    2db3:	e8 d8 e5 ff ff       	callq  1390 <__isoc99_sscanf@plt>
    2db8:	48 8d b4 24 50 20 00 	lea    0x2050(%rsp),%rsi
    2dbf:	00 
    2dc0:	b9 03 00 00 00       	mov    $0x3,%ecx
    2dc5:	48 8d 3d 47 1a 00 00 	lea    0x1a47(%rip),%rdi        # 4813 <trans_char+0xc3>
    2dcc:	f3 a6                	repz cmpsb %es:(%rdi),%ds:(%rsi)
    2dce:	0f 97 c0             	seta   %al
    2dd1:	1c 00                	sbb    $0x0,%al
    2dd3:	84 c0                	test   %al,%al
    2dd5:	0f 84 b3 03 00 00    	je     318e <submitr+0x61a>
    2ddb:	48 8d b4 24 50 20 00 	lea    0x2050(%rsp),%rsi
    2de2:	00 
    2de3:	48 8d 7c 24 40       	lea    0x40(%rsp),%rdi
    2de8:	ba 00 20 00 00       	mov    $0x2000,%edx
    2ded:	e8 d1 fb ff ff       	callq  29c3 <rio_readlineb>
    2df2:	48 85 c0             	test   %rax,%rax
    2df5:	7f c1                	jg     2db8 <submitr+0x244>
    2df7:	48 b8 45 72 72 6f 72 	movabs $0x43203a726f727245,%rax
    2dfe:	3a 20 43 
    2e01:	48 ba 6c 69 65 6e 74 	movabs $0x6e7520746e65696c,%rdx
    2e08:	20 75 6e 
    2e0b:	48 89 45 00          	mov    %rax,0x0(%rbp)
    2e0f:	48 89 55 08          	mov    %rdx,0x8(%rbp)
    2e13:	48 b8 61 62 6c 65 20 	movabs $0x206f7420656c6261,%rax
    2e1a:	74 6f 20 
    2e1d:	48 ba 72 65 61 64 20 	movabs $0x6165682064616572,%rdx
    2e24:	68 65 61 
    2e27:	48 89 45 10          	mov    %rax,0x10(%rbp)
    2e2b:	48 89 55 18          	mov    %rdx,0x18(%rbp)
    2e2f:	48 b8 64 65 72 73 20 	movabs $0x6f72662073726564,%rax
    2e36:	66 72 6f 
    2e39:	48 ba 6d 20 74 68 65 	movabs $0x657220656874206d,%rdx
    2e40:	20 72 65 
    2e43:	48 89 45 20          	mov    %rax,0x20(%rbp)
    2e47:	48 89 55 28          	mov    %rdx,0x28(%rbp)
    2e4b:	48 b8 73 75 6c 74 20 	movabs $0x72657320746c7573,%rax
    2e52:	73 65 72 
    2e55:	48 89 45 30          	mov    %rax,0x30(%rbp)
    2e59:	c7 45 38 76 65 72 00 	movl   $0x726576,0x38(%rbp)
    2e60:	89 df                	mov    %ebx,%edi
    2e62:	e8 99 e4 ff ff       	callq  1300 <close@plt>
    2e67:	b8 ff ff ff ff       	mov    $0xffffffff,%eax
    2e6c:	48 8b 9c 24 58 a0 00 	mov    0xa058(%rsp),%rbx
    2e73:	00 
    2e74:	64 48 33 1c 25 28 00 	xor    %fs:0x28,%rbx
    2e7b:	00 00 
    2e7d:	0f 85 7e 04 00 00    	jne    3301 <submitr+0x78d>
    2e83:	48 81 c4 68 a0 00 00 	add    $0xa068,%rsp
    2e8a:	5b                   	pop    %rbx
    2e8b:	5d                   	pop    %rbp
    2e8c:	41 5c                	pop    %r12
    2e8e:	41 5d                	pop    %r13
    2e90:	41 5e                	pop    %r14
    2e92:	41 5f                	pop    %r15
    2e94:	c3                   	retq   
    2e95:	48 b8 45 72 72 6f 72 	movabs $0x43203a726f727245,%rax
    2e9c:	3a 20 43 
    2e9f:	48 ba 6c 69 65 6e 74 	movabs $0x6e7520746e65696c,%rdx
    2ea6:	20 75 6e 
    2ea9:	48 89 45 00          	mov    %rax,0x0(%rbp)
    2ead:	48 89 55 08          	mov    %rdx,0x8(%rbp)
    2eb1:	48 b8 61 62 6c 65 20 	movabs $0x206f7420656c6261,%rax
    2eb8:	74 6f 20 
    2ebb:	48 ba 63 72 65 61 74 	movabs $0x7320657461657263,%rdx
    2ec2:	65 20 73 
    2ec5:	48 89 45 10          	mov    %rax,0x10(%rbp)
    2ec9:	48 89 55 18          	mov    %rdx,0x18(%rbp)
    2ecd:	c7 45 20 6f 63 6b 65 	movl   $0x656b636f,0x20(%rbp)
    2ed4:	66 c7 45 24 74 00    	movw   $0x74,0x24(%rbp)
    2eda:	b8 ff ff ff ff       	mov    $0xffffffff,%eax
    2edf:	eb 8b                	jmp    2e6c <submitr+0x2f8>
    2ee1:	48 b8 45 72 72 6f 72 	movabs $0x44203a726f727245,%rax
    2ee8:	3a 20 44 
    2eeb:	48 ba 4e 53 20 69 73 	movabs $0x6e7520736920534e,%rdx
    2ef2:	20 75 6e 
    2ef5:	48 89 45 00          	mov    %rax,0x0(%rbp)
    2ef9:	48 89 55 08          	mov    %rdx,0x8(%rbp)
    2efd:	48 b8 61 62 6c 65 20 	movabs $0x206f7420656c6261,%rax
    2f04:	74 6f 20 
    2f07:	48 ba 72 65 73 6f 6c 	movabs $0x2065766c6f736572,%rdx
    2f0e:	76 65 20 
    2f11:	48 89 45 10          	mov    %rax,0x10(%rbp)
    2f15:	48 89 55 18          	mov    %rdx,0x18(%rbp)
    2f19:	48 b8 73 65 72 76 65 	movabs $0x6120726576726573,%rax
    2f20:	72 20 61 
    2f23:	48 89 45 20          	mov    %rax,0x20(%rbp)
    2f27:	c7 45 28 64 64 72 65 	movl   $0x65726464,0x28(%rbp)
    2f2e:	66 c7 45 2c 73 73    	movw   $0x7373,0x2c(%rbp)
    2f34:	c6 45 2e 00          	movb   $0x0,0x2e(%rbp)
    2f38:	89 df                	mov    %ebx,%edi
    2f3a:	e8 c1 e3 ff ff       	callq  1300 <close@plt>
    2f3f:	b8 ff ff ff ff       	mov    $0xffffffff,%eax
    2f44:	e9 23 ff ff ff       	jmpq   2e6c <submitr+0x2f8>
    2f49:	48 b8 45 72 72 6f 72 	movabs $0x55203a726f727245,%rax
    2f50:	3a 20 55 
    2f53:	48 ba 6e 61 62 6c 65 	movabs $0x6f7420656c62616e,%rdx
    2f5a:	20 74 6f 
    2f5d:	48 89 45 00          	mov    %rax,0x0(%rbp)
    2f61:	48 89 55 08          	mov    %rdx,0x8(%rbp)
    2f65:	48 b8 20 63 6f 6e 6e 	movabs $0x7463656e6e6f6320,%rax
    2f6c:	65 63 74 
    2f6f:	48 ba 20 74 6f 20 74 	movabs $0x20656874206f7420,%rdx
    2f76:	68 65 20 
    2f79:	48 89 45 10          	mov    %rax,0x10(%rbp)
    2f7d:	48 89 55 18          	mov    %rdx,0x18(%rbp)
    2f81:	c7 45 20 73 65 72 76 	movl   $0x76726573,0x20(%rbp)
    2f88:	66 c7 45 24 65 72    	movw   $0x7265,0x24(%rbp)
    2f8e:	c6 45 26 00          	movb   $0x0,0x26(%rbp)
    2f92:	89 df                	mov    %ebx,%edi
    2f94:	e8 67 e3 ff ff       	callq  1300 <close@plt>
    2f99:	b8 ff ff ff ff       	mov    $0xffffffff,%eax
    2f9e:	e9 c9 fe ff ff       	jmpq   2e6c <submitr+0x2f8>
    2fa3:	48 b8 45 72 72 6f 72 	movabs $0x52203a726f727245,%rax
    2faa:	3a 20 52 
    2fad:	48 ba 65 73 75 6c 74 	movabs $0x747320746c757365,%rdx
    2fb4:	20 73 74 
    2fb7:	48 89 45 00          	mov    %rax,0x0(%rbp)
    2fbb:	48 89 55 08          	mov    %rdx,0x8(%rbp)
    2fbf:	48 b8 72 69 6e 67 20 	movabs $0x6f6f7420676e6972,%rax
    2fc6:	74 6f 6f 
    2fc9:	48 ba 20 6c 61 72 67 	movabs $0x202e656772616c20,%rdx
    2fd0:	65 2e 20 
    2fd3:	48 89 45 10          	mov    %rax,0x10(%rbp)
    2fd7:	48 89 55 18          	mov    %rdx,0x18(%rbp)
    2fdb:	48 b8 49 6e 63 72 65 	movabs $0x6573616572636e49,%rax
    2fe2:	61 73 65 
    2fe5:	48 ba 20 53 55 42 4d 	movabs $0x5254494d42555320,%rdx
    2fec:	49 54 52 
    2fef:	48 89 45 20          	mov    %rax,0x20(%rbp)
    2ff3:	48 89 55 28          	mov    %rdx,0x28(%rbp)
    2ff7:	48 b8 5f 4d 41 58 42 	movabs $0x46554258414d5f,%rax
    2ffe:	55 46 00 
    3001:	48 89 45 30          	mov    %rax,0x30(%rbp)
    3005:	89 df                	mov    %ebx,%edi
    3007:	e8 f4 e2 ff ff       	callq  1300 <close@plt>
    300c:	b8 ff ff ff ff       	mov    $0xffffffff,%eax
    3011:	e9 56 fe ff ff       	jmpq   2e6c <submitr+0x2f8>
    3016:	48 b8 45 72 72 6f 72 	movabs $0x52203a726f727245,%rax
    301d:	3a 20 52 
    3020:	48 ba 65 73 75 6c 74 	movabs $0x747320746c757365,%rdx
    3027:	20 73 74 
    302a:	48 89 45 00          	mov    %rax,0x0(%rbp)
    302e:	48 89 55 08          	mov    %rdx,0x8(%rbp)
    3032:	48 b8 72 69 6e 67 20 	movabs $0x6e6f6320676e6972,%rax
    3039:	63 6f 6e 
    303c:	48 ba 74 61 69 6e 73 	movabs $0x6e6120736e696174,%rdx
    3043:	20 61 6e 
    3046:	48 89 45 10          	mov    %rax,0x10(%rbp)
    304a:	48 89 55 18          	mov    %rdx,0x18(%rbp)
    304e:	48 b8 20 69 6c 6c 65 	movabs $0x6c6167656c6c6920,%rax
    3055:	67 61 6c 
    3058:	48 ba 20 6f 72 20 75 	movabs $0x72706e7520726f20,%rdx
    305f:	6e 70 72 
    3062:	48 89 45 20          	mov    %rax,0x20(%rbp)
    3066:	48 89 55 28          	mov    %rdx,0x28(%rbp)
    306a:	48 b8 69 6e 74 61 62 	movabs $0x20656c6261746e69,%rax
    3071:	6c 65 20 
    3074:	48 ba 63 68 61 72 61 	movabs $0x6574636172616863,%rdx
    307b:	63 74 65 
    307e:	48 89 45 30          	mov    %rax,0x30(%rbp)
    3082:	48 89 55 38          	mov    %rdx,0x38(%rbp)
    3086:	66 c7 45 40 72 2e    	movw   $0x2e72,0x40(%rbp)
    308c:	c6 45 42 00          	movb   $0x0,0x42(%rbp)
    3090:	89 df                	mov    %ebx,%edi
    3092:	e8 69 e2 ff ff       	callq  1300 <close@plt>
    3097:	b8 ff ff ff ff       	mov    $0xffffffff,%eax
    309c:	e9 cb fd ff ff       	jmpq   2e6c <submitr+0x2f8>
    30a1:	48 b8 45 72 72 6f 72 	movabs $0x43203a726f727245,%rax
    30a8:	3a 20 43 
    30ab:	48 ba 6c 69 65 6e 74 	movabs $0x6e7520746e65696c,%rdx
    30b2:	20 75 6e 
    30b5:	48 89 45 00          	mov    %rax,0x0(%rbp)
    30b9:	48 89 55 08          	mov    %rdx,0x8(%rbp)
    30bd:	48 b8 61 62 6c 65 20 	movabs $0x206f7420656c6261,%rax
    30c4:	74 6f 20 
    30c7:	48 ba 77 72 69 74 65 	movabs $0x6f74206574697277,%rdx
    30ce:	20 74 6f 
    30d1:	48 89 45 10          	mov    %rax,0x10(%rbp)
    30d5:	48 89 55 18          	mov    %rdx,0x18(%rbp)
    30d9:	48 b8 20 74 68 65 20 	movabs $0x7365722065687420,%rax
    30e0:	72 65 73 
    30e3:	48 ba 75 6c 74 20 73 	movabs $0x7672657320746c75,%rdx
    30ea:	65 72 76 
    30ed:	48 89 45 20          	mov    %rax,0x20(%rbp)
    30f1:	48 89 55 28          	mov    %rdx,0x28(%rbp)
    30f5:	66 c7 45 30 65 72    	movw   $0x7265,0x30(%rbp)
    30fb:	c6 45 32 00          	movb   $0x0,0x32(%rbp)
    30ff:	89 df                	mov    %ebx,%edi
    3101:	e8 fa e1 ff ff       	callq  1300 <close@plt>
    3106:	b8 ff ff ff ff       	mov    $0xffffffff,%eax
    310b:	e9 5c fd ff ff       	jmpq   2e6c <submitr+0x2f8>
    3110:	48 b8 45 72 72 6f 72 	movabs $0x43203a726f727245,%rax
    3117:	3a 20 43 
    311a:	48 ba 6c 69 65 6e 74 	movabs $0x6e7520746e65696c,%rdx
    3121:	20 75 6e 
    3124:	48 89 45 00          	mov    %rax,0x0(%rbp)
    3128:	48 89 55 08          	mov    %rdx,0x8(%rbp)
    312c:	48 b8 61 62 6c 65 20 	movabs $0x206f7420656c6261,%rax
    3133:	74 6f 20 
    3136:	48 ba 72 65 61 64 20 	movabs $0x7269662064616572,%rdx
    313d:	66 69 72 
    3140:	48 89 45 10          	mov    %rax,0x10(%rbp)
    3144:	48 89 55 18          	mov    %rdx,0x18(%rbp)
    3148:	48 b8 73 74 20 68 65 	movabs $0x6564616568207473,%rax
    314f:	61 64 65 
    3152:	48 ba 72 20 66 72 6f 	movabs $0x72206d6f72662072,%rdx
    3159:	6d 20 72 
    315c:	48 89 45 20          	mov    %rax,0x20(%rbp)
    3160:	48 89 55 28          	mov    %rdx,0x28(%rbp)
    3164:	48 b8 65 73 75 6c 74 	movabs $0x657320746c757365,%rax
    316b:	20 73 65 
    316e:	48 89 45 30          	mov    %rax,0x30(%rbp)
    3172:	c7 45 38 72 76 65 72 	movl   $0x72657672,0x38(%rbp)
    3179:	c6 45 3c 00          	movb   $0x0,0x3c(%rbp)
    317d:	89 df                	mov    %ebx,%edi
    317f:	e8 7c e1 ff ff       	callq  1300 <close@plt>
    3184:	b8 ff ff ff ff       	mov    $0xffffffff,%eax
    3189:	e9 de fc ff ff       	jmpq   2e6c <submitr+0x2f8>
    318e:	48 8d b4 24 50 20 00 	lea    0x2050(%rsp),%rsi
    3195:	00 
    3196:	48 8d 7c 24 40       	lea    0x40(%rsp),%rdi
    319b:	ba 00 20 00 00       	mov    $0x2000,%edx
    31a0:	e8 1e f8 ff ff       	callq  29c3 <rio_readlineb>
    31a5:	48 85 c0             	test   %rax,%rax
    31a8:	0f 8e 96 00 00 00    	jle    3244 <submitr+0x6d0>
    31ae:	44 8b 44 24 2c       	mov    0x2c(%rsp),%r8d
    31b3:	41 81 f8 c8 00 00 00 	cmp    $0xc8,%r8d
    31ba:	0f 85 08 01 00 00    	jne    32c8 <submitr+0x754>
    31c0:	48 8d b4 24 50 20 00 	lea    0x2050(%rsp),%rsi
    31c7:	00 
    31c8:	48 89 ef             	mov    %rbp,%rdi
    31cb:	e8 c0 e0 ff ff       	callq  1290 <strcpy@plt>
    31d0:	89 df                	mov    %ebx,%edi
    31d2:	e8 29 e1 ff ff       	callq  1300 <close@plt>
    31d7:	b9 04 00 00 00       	mov    $0x4,%ecx
    31dc:	48 8d 3d 2a 16 00 00 	lea    0x162a(%rip),%rdi        # 480d <trans_char+0xbd>
    31e3:	48 89 ee             	mov    %rbp,%rsi
    31e6:	f3 a6                	repz cmpsb %es:(%rdi),%ds:(%rsi)
    31e8:	0f 97 c0             	seta   %al
    31eb:	1c 00                	sbb    $0x0,%al
    31ed:	0f be c0             	movsbl %al,%eax
    31f0:	85 c0                	test   %eax,%eax
    31f2:	0f 84 74 fc ff ff    	je     2e6c <submitr+0x2f8>
    31f8:	b9 05 00 00 00       	mov    $0x5,%ecx
    31fd:	48 8d 3d 0d 16 00 00 	lea    0x160d(%rip),%rdi        # 4811 <trans_char+0xc1>
    3204:	48 89 ee             	mov    %rbp,%rsi
    3207:	f3 a6                	repz cmpsb %es:(%rdi),%ds:(%rsi)
    3209:	0f 97 c0             	seta   %al
    320c:	1c 00                	sbb    $0x0,%al
    320e:	0f be c0             	movsbl %al,%eax
    3211:	85 c0                	test   %eax,%eax
    3213:	0f 84 53 fc ff ff    	je     2e6c <submitr+0x2f8>
    3219:	b9 03 00 00 00       	mov    $0x3,%ecx
    321e:	48 8d 3d f1 15 00 00 	lea    0x15f1(%rip),%rdi        # 4816 <trans_char+0xc6>
    3225:	48 89 ee             	mov    %rbp,%rsi
    3228:	f3 a6                	repz cmpsb %es:(%rdi),%ds:(%rsi)
    322a:	0f 97 c0             	seta   %al
    322d:	1c 00                	sbb    $0x0,%al
    322f:	0f be c0             	movsbl %al,%eax
    3232:	85 c0                	test   %eax,%eax
    3234:	0f 84 32 fc ff ff    	je     2e6c <submitr+0x2f8>
    323a:	b8 ff ff ff ff       	mov    $0xffffffff,%eax
    323f:	e9 28 fc ff ff       	jmpq   2e6c <submitr+0x2f8>
    3244:	48 b8 45 72 72 6f 72 	movabs $0x43203a726f727245,%rax
    324b:	3a 20 43 
    324e:	48 ba 6c 69 65 6e 74 	movabs $0x6e7520746e65696c,%rdx
    3255:	20 75 6e 
    3258:	48 89 45 00          	mov    %rax,0x0(%rbp)
    325c:	48 89 55 08          	mov    %rdx,0x8(%rbp)
    3260:	48 b8 61 62 6c 65 20 	movabs $0x206f7420656c6261,%rax
    3267:	74 6f 20 
    326a:	48 ba 72 65 61 64 20 	movabs $0x6174732064616572,%rdx
    3271:	73 74 61 
    3274:	48 89 45 10          	mov    %rax,0x10(%rbp)
    3278:	48 89 55 18          	mov    %rdx,0x18(%rbp)
    327c:	48 b8 74 75 73 20 6d 	movabs $0x7373656d20737574,%rax
    3283:	65 73 73 
    3286:	48 ba 61 67 65 20 66 	movabs $0x6d6f726620656761,%rdx
    328d:	72 6f 6d 
    3290:	48 89 45 20          	mov    %rax,0x20(%rbp)
    3294:	48 89 55 28          	mov    %rdx,0x28(%rbp)
    3298:	48 b8 20 72 65 73 75 	movabs $0x20746c7573657220,%rax
    329f:	6c 74 20 
    32a2:	48 89 45 30          	mov    %rax,0x30(%rbp)
    32a6:	c7 45 38 73 65 72 76 	movl   $0x76726573,0x38(%rbp)
    32ad:	66 c7 45 3c 65 72    	movw   $0x7265,0x3c(%rbp)
    32b3:	c6 45 3e 00          	movb   $0x0,0x3e(%rbp)
    32b7:	89 df                	mov    %ebx,%edi
    32b9:	e8 42 e0 ff ff       	callq  1300 <close@plt>
    32be:	b8 ff ff ff ff       	mov    $0xffffffff,%eax
    32c3:	e9 a4 fb ff ff       	jmpq   2e6c <submitr+0x2f8>
    32c8:	4c 8d 8c 24 50 80 00 	lea    0x8050(%rsp),%r9
    32cf:	00 
    32d0:	48 8d 0d f1 14 00 00 	lea    0x14f1(%rip),%rcx        # 47c8 <trans_char+0x78>
    32d7:	48 c7 c2 ff ff ff ff 	mov    $0xffffffffffffffff,%rdx
    32de:	be 01 00 00 00       	mov    $0x1,%esi
    32e3:	48 89 ef             	mov    %rbp,%rdi
    32e6:	b8 00 00 00 00       	mov    $0x0,%eax
    32eb:	e8 50 e1 ff ff       	callq  1440 <__sprintf_chk@plt>
    32f0:	89 df                	mov    %ebx,%edi
    32f2:	e8 09 e0 ff ff       	callq  1300 <close@plt>
    32f7:	b8 ff ff ff ff       	mov    $0xffffffff,%eax
    32fc:	e9 6b fb ff ff       	jmpq   2e6c <submitr+0x2f8>
    3301:	e8 ba df ff ff       	callq  12c0 <__stack_chk_fail@plt>

0000000000003306 <init_timeout>:
    3306:	f3 0f 1e fa          	endbr64 
    330a:	85 ff                	test   %edi,%edi
    330c:	74 26                	je     3334 <init_timeout+0x2e>
    330e:	53                   	push   %rbx
    330f:	89 fb                	mov    %edi,%ebx
    3311:	78 1a                	js     332d <init_timeout+0x27>
    3313:	48 8d 35 8e f5 ff ff 	lea    -0xa72(%rip),%rsi        # 28a8 <sigalrm_handler>
    331a:	bf 0e 00 00 00       	mov    $0xe,%edi
    331f:	e8 fc df ff ff       	callq  1320 <signal@plt>
    3324:	89 df                	mov    %ebx,%edi
    3326:	e8 c5 df ff ff       	callq  12f0 <alarm@plt>
    332b:	5b                   	pop    %rbx
    332c:	c3                   	retq   
    332d:	bb 00 00 00 00       	mov    $0x0,%ebx
    3332:	eb df                	jmp    3313 <init_timeout+0xd>
    3334:	c3                   	retq   

0000000000003335 <init_driver>:
    3335:	f3 0f 1e fa          	endbr64 
    3339:	41 54                	push   %r12
    333b:	55                   	push   %rbp
    333c:	53                   	push   %rbx
    333d:	48 83 ec 20          	sub    $0x20,%rsp
    3341:	48 89 fd             	mov    %rdi,%rbp
    3344:	64 48 8b 04 25 28 00 	mov    %fs:0x28,%rax
    334b:	00 00 
    334d:	48 89 44 24 18       	mov    %rax,0x18(%rsp)
    3352:	31 c0                	xor    %eax,%eax
    3354:	be 01 00 00 00       	mov    $0x1,%esi
    3359:	bf 0d 00 00 00       	mov    $0xd,%edi
    335e:	e8 bd df ff ff       	callq  1320 <signal@plt>
    3363:	be 01 00 00 00       	mov    $0x1,%esi
    3368:	bf 1d 00 00 00       	mov    $0x1d,%edi
    336d:	e8 ae df ff ff       	callq  1320 <signal@plt>
    3372:	be 01 00 00 00       	mov    $0x1,%esi
    3377:	bf 1d 00 00 00       	mov    $0x1d,%edi
    337c:	e8 9f df ff ff       	callq  1320 <signal@plt>
    3381:	ba 00 00 00 00       	mov    $0x0,%edx
    3386:	be 01 00 00 00       	mov    $0x1,%esi
    338b:	bf 02 00 00 00       	mov    $0x2,%edi
    3390:	e8 bb e0 ff ff       	callq  1450 <socket@plt>
    3395:	85 c0                	test   %eax,%eax
    3397:	0f 88 9c 00 00 00    	js     3439 <init_driver+0x104>
    339d:	89 c3                	mov    %eax,%ebx
    339f:	48 8d 3d 69 0f 00 00 	lea    0xf69(%rip),%rdi        # 430f <_IO_stdin_used+0x30f>
    33a6:	e8 85 df ff ff       	callq  1330 <gethostbyname@plt>
    33ab:	48 85 c0             	test   %rax,%rax
    33ae:	0f 84 d1 00 00 00    	je     3485 <init_driver+0x150>
    33b4:	49 89 e4             	mov    %rsp,%r12
    33b7:	48 c7 04 24 00 00 00 	movq   $0x0,(%rsp)
    33be:	00 
    33bf:	48 c7 44 24 08 00 00 	movq   $0x0,0x8(%rsp)
    33c6:	00 00 
    33c8:	66 c7 04 24 02 00    	movw   $0x2,(%rsp)
    33ce:	48 63 50 14          	movslq 0x14(%rax),%rdx
    33d2:	48 8b 40 18          	mov    0x18(%rax),%rax
    33d6:	48 8b 30             	mov    (%rax),%rsi
    33d9:	48 8d 7c 24 04       	lea    0x4(%rsp),%rdi
    33de:	b9 0c 00 00 00       	mov    $0xc,%ecx
    33e3:	e8 58 df ff ff       	callq  1340 <__memmove_chk@plt>
    33e8:	66 c7 44 24 02 3c 9a 	movw   $0x9a3c,0x2(%rsp)
    33ef:	ba 10 00 00 00       	mov    $0x10,%edx
    33f4:	4c 89 e6             	mov    %r12,%rsi
    33f7:	89 df                	mov    %ebx,%edi
    33f9:	e8 12 e0 ff ff       	callq  1410 <connect@plt>
    33fe:	85 c0                	test   %eax,%eax
    3400:	0f 88 e7 00 00 00    	js     34ed <init_driver+0x1b8>
    3406:	89 df                	mov    %ebx,%edi
    3408:	e8 f3 de ff ff       	callq  1300 <close@plt>
    340d:	66 c7 45 00 4f 4b    	movw   $0x4b4f,0x0(%rbp)
    3413:	c6 45 02 00          	movb   $0x0,0x2(%rbp)
    3417:	b8 00 00 00 00       	mov    $0x0,%eax
    341c:	48 8b 4c 24 18       	mov    0x18(%rsp),%rcx
    3421:	64 48 33 0c 25 28 00 	xor    %fs:0x28,%rcx
    3428:	00 00 
    342a:	0f 85 10 01 00 00    	jne    3540 <init_driver+0x20b>
    3430:	48 83 c4 20          	add    $0x20,%rsp
    3434:	5b                   	pop    %rbx
    3435:	5d                   	pop    %rbp
    3436:	41 5c                	pop    %r12
    3438:	c3                   	retq   
    3439:	48 b8 45 72 72 6f 72 	movabs $0x43203a726f727245,%rax
    3440:	3a 20 43 
    3443:	48 ba 6c 69 65 6e 74 	movabs $0x6e7520746e65696c,%rdx
    344a:	20 75 6e 
    344d:	48 89 45 00          	mov    %rax,0x0(%rbp)
    3451:	48 89 55 08          	mov    %rdx,0x8(%rbp)
    3455:	48 b8 61 62 6c 65 20 	movabs $0x206f7420656c6261,%rax
    345c:	74 6f 20 
    345f:	48 ba 63 72 65 61 74 	movabs $0x7320657461657263,%rdx
    3466:	65 20 73 
    3469:	48 89 45 10          	mov    %rax,0x10(%rbp)
    346d:	48 89 55 18          	mov    %rdx,0x18(%rbp)
    3471:	c7 45 20 6f 63 6b 65 	movl   $0x656b636f,0x20(%rbp)
    3478:	66 c7 45 24 74 00    	movw   $0x74,0x24(%rbp)
    347e:	b8 ff ff ff ff       	mov    $0xffffffff,%eax
    3483:	eb 97                	jmp    341c <init_driver+0xe7>
    3485:	48 b8 45 72 72 6f 72 	movabs $0x44203a726f727245,%rax
    348c:	3a 20 44 
    348f:	48 ba 4e 53 20 69 73 	movabs $0x6e7520736920534e,%rdx
    3496:	20 75 6e 
    3499:	48 89 45 00          	mov    %rax,0x0(%rbp)
    349d:	48 89 55 08          	mov    %rdx,0x8(%rbp)
    34a1:	48 b8 61 62 6c 65 20 	movabs $0x206f7420656c6261,%rax
    34a8:	74 6f 20 
    34ab:	48 ba 72 65 73 6f 6c 	movabs $0x2065766c6f736572,%rdx
    34b2:	76 65 20 
    34b5:	48 89 45 10          	mov    %rax,0x10(%rbp)
    34b9:	48 89 55 18          	mov    %rdx,0x18(%rbp)
    34bd:	48 b8 73 65 72 76 65 	movabs $0x6120726576726573,%rax
    34c4:	72 20 61 
    34c7:	48 89 45 20          	mov    %rax,0x20(%rbp)
    34cb:	c7 45 28 64 64 72 65 	movl   $0x65726464,0x28(%rbp)
    34d2:	66 c7 45 2c 73 73    	movw   $0x7373,0x2c(%rbp)
    34d8:	c6 45 2e 00          	movb   $0x0,0x2e(%rbp)
    34dc:	89 df                	mov    %ebx,%edi
    34de:	e8 1d de ff ff       	callq  1300 <close@plt>
    34e3:	b8 ff ff ff ff       	mov    $0xffffffff,%eax
    34e8:	e9 2f ff ff ff       	jmpq   341c <init_driver+0xe7>
    34ed:	48 b8 45 72 72 6f 72 	movabs $0x55203a726f727245,%rax
    34f4:	3a 20 55 
    34f7:	48 ba 6e 61 62 6c 65 	movabs $0x6f7420656c62616e,%rdx
    34fe:	20 74 6f 
    3501:	48 89 45 00          	mov    %rax,0x0(%rbp)
    3505:	48 89 55 08          	mov    %rdx,0x8(%rbp)
    3509:	48 b8 20 63 6f 6e 6e 	movabs $0x7463656e6e6f6320,%rax
    3510:	65 63 74 
    3513:	48 ba 20 74 6f 20 73 	movabs $0x76726573206f7420,%rdx
    351a:	65 72 76 
    351d:	48 89 45 10          	mov    %rax,0x10(%rbp)
    3521:	48 89 55 18          	mov    %rdx,0x18(%rbp)
    3525:	66 c7 45 20 65 72    	movw   $0x7265,0x20(%rbp)
    352b:	c6 45 22 00          	movb   $0x0,0x22(%rbp)
    352f:	89 df                	mov    %ebx,%edi
    3531:	e8 ca dd ff ff       	callq  1300 <close@plt>
    3536:	b8 ff ff ff ff       	mov    $0xffffffff,%eax
    353b:	e9 dc fe ff ff       	jmpq   341c <init_driver+0xe7>
    3540:	e8 7b dd ff ff       	callq  12c0 <__stack_chk_fail@plt>

0000000000003545 <driver_post>:
    3545:	f3 0f 1e fa          	endbr64 
    3549:	53                   	push   %rbx
    354a:	4c 89 cb             	mov    %r9,%rbx
    354d:	45 85 c0             	test   %r8d,%r8d
    3550:	75 18                	jne    356a <driver_post+0x25>
    3552:	48 85 ff             	test   %rdi,%rdi
    3555:	74 05                	je     355c <driver_post+0x17>
    3557:	80 3f 00             	cmpb   $0x0,(%rdi)
    355a:	75 37                	jne    3593 <driver_post+0x4e>
    355c:	66 c7 03 4f 4b       	movw   $0x4b4f,(%rbx)
    3561:	c6 43 02 00          	movb   $0x0,0x2(%rbx)
    3565:	44 89 c0             	mov    %r8d,%eax
    3568:	5b                   	pop    %rbx
    3569:	c3                   	retq   
    356a:	48 89 ca             	mov    %rcx,%rdx
    356d:	48 8d 35 a5 12 00 00 	lea    0x12a5(%rip),%rsi        # 4819 <trans_char+0xc9>
    3574:	bf 01 00 00 00       	mov    $0x1,%edi
    3579:	b8 00 00 00 00       	mov    $0x0,%eax
    357e:	e8 2d de ff ff       	callq  13b0 <__printf_chk@plt>
    3583:	66 c7 03 4f 4b       	movw   $0x4b4f,(%rbx)
    3588:	c6 43 02 00          	movb   $0x0,0x2(%rbx)
    358c:	b8 00 00 00 00       	mov    $0x0,%eax
    3591:	eb d5                	jmp    3568 <driver_post+0x23>
    3593:	48 83 ec 08          	sub    $0x8,%rsp
    3597:	41 51                	push   %r9
    3599:	49 89 c9             	mov    %rcx,%r9
    359c:	49 89 d0             	mov    %rdx,%r8
    359f:	48 89 f9             	mov    %rdi,%rcx
    35a2:	48 89 f2             	mov    %rsi,%rdx
    35a5:	be 9a 3c 00 00       	mov    $0x3c9a,%esi
    35aa:	48 8d 3d 5e 0d 00 00 	lea    0xd5e(%rip),%rdi        # 430f <_IO_stdin_used+0x30f>
    35b1:	e8 be f5 ff ff       	callq  2b74 <submitr>
    35b6:	48 83 c4 10          	add    $0x10,%rsp
    35ba:	eb ac                	jmp    3568 <driver_post+0x23>

00000000000035bc <check>:
    35bc:	f3 0f 1e fa          	endbr64 
    35c0:	89 f8                	mov    %edi,%eax
    35c2:	c1 e8 1c             	shr    $0x1c,%eax
    35c5:	74 1d                	je     35e4 <check+0x28>
    35c7:	b9 00 00 00 00       	mov    $0x0,%ecx
    35cc:	83 f9 1f             	cmp    $0x1f,%ecx
    35cf:	7f 0d                	jg     35de <check+0x22>
    35d1:	89 f8                	mov    %edi,%eax
    35d3:	d3 e8                	shr    %cl,%eax
    35d5:	3c 0a                	cmp    $0xa,%al
    35d7:	74 11                	je     35ea <check+0x2e>
    35d9:	83 c1 08             	add    $0x8,%ecx
    35dc:	eb ee                	jmp    35cc <check+0x10>
    35de:	b8 01 00 00 00       	mov    $0x1,%eax
    35e3:	c3                   	retq   
    35e4:	b8 00 00 00 00       	mov    $0x0,%eax
    35e9:	c3                   	retq   
    35ea:	b8 00 00 00 00       	mov    $0x0,%eax
    35ef:	c3                   	retq   

00000000000035f0 <gencookie>:
    35f0:	f3 0f 1e fa          	endbr64 
    35f4:	53                   	push   %rbx
    35f5:	83 c7 01             	add    $0x1,%edi
    35f8:	e8 73 dc ff ff       	callq  1270 <srandom@plt>
    35fd:	e8 7e dd ff ff       	callq  1380 <random@plt>
    3602:	48 89 c7             	mov    %rax,%rdi
    3605:	89 c3                	mov    %eax,%ebx
    3607:	e8 b0 ff ff ff       	callq  35bc <check>
    360c:	85 c0                	test   %eax,%eax
    360e:	74 ed                	je     35fd <gencookie+0xd>
    3610:	89 d8                	mov    %ebx,%eax
    3612:	5b                   	pop    %rbx
    3613:	c3                   	retq   
    3614:	66 2e 0f 1f 84 00 00 	nopw   %cs:0x0(%rax,%rax,1)
    361b:	00 00 00 
    361e:	66 90                	xchg   %ax,%ax

0000000000003620 <__libc_csu_init>:
    3620:	f3 0f 1e fa          	endbr64 
    3624:	41 57                	push   %r15
    3626:	4c 8d 3d 8b 36 00 00 	lea    0x368b(%rip),%r15        # 6cb8 <__frame_dummy_init_array_entry>
    362d:	41 56                	push   %r14
    362f:	49 89 d6             	mov    %rdx,%r14
    3632:	41 55                	push   %r13
    3634:	49 89 f5             	mov    %rsi,%r13
    3637:	41 54                	push   %r12
    3639:	41 89 fc             	mov    %edi,%r12d
    363c:	55                   	push   %rbp
    363d:	48 8d 2d 7c 36 00 00 	lea    0x367c(%rip),%rbp        # 6cc0 <__do_global_dtors_aux_fini_array_entry>
    3644:	53                   	push   %rbx
    3645:	4c 29 fd             	sub    %r15,%rbp
    3648:	48 83 ec 08          	sub    $0x8,%rsp
    364c:	e8 af d9 ff ff       	callq  1000 <_init>
    3651:	48 c1 fd 03          	sar    $0x3,%rbp
    3655:	74 1f                	je     3676 <__libc_csu_init+0x56>
    3657:	31 db                	xor    %ebx,%ebx
    3659:	0f 1f 80 00 00 00 00 	nopl   0x0(%rax)
    3660:	4c 89 f2             	mov    %r14,%rdx
    3663:	4c 89 ee             	mov    %r13,%rsi
    3666:	44 89 e7             	mov    %r12d,%edi
    3669:	41 ff 14 df          	callq  *(%r15,%rbx,8)
    366d:	48 83 c3 01          	add    $0x1,%rbx
    3671:	48 39 dd             	cmp    %rbx,%rbp
    3674:	75 ea                	jne    3660 <__libc_csu_init+0x40>
    3676:	48 83 c4 08          	add    $0x8,%rsp
    367a:	5b                   	pop    %rbx
    367b:	5d                   	pop    %rbp
    367c:	41 5c                	pop    %r12
    367e:	41 5d                	pop    %r13
    3680:	41 5e                	pop    %r14
    3682:	41 5f                	pop    %r15
    3684:	c3                   	retq   
    3685:	66 66 2e 0f 1f 84 00 	data16 nopw %cs:0x0(%rax,%rax,1)
    368c:	00 00 00 00 

0000000000003690 <__libc_csu_fini>:
    3690:	f3 0f 1e fa          	endbr64 
    3694:	c3                   	retq   

Disassembly of section .fini:

0000000000003698 <_fini>:
    3698:	f3 0f 1e fa          	endbr64 
    369c:	48 83 ec 08          	sub    $0x8,%rsp
    36a0:	48 83 c4 08          	add    $0x8,%rsp
    36a4:	c3                   	retq   
