
rtarget:     file format elf64-x86-64


Disassembly of section .init:

0000000000001000 <_init>:
    1000:	f3 0f 1e fa          	endbr64 
    1004:	48 83 ec 08          	sub    $0x8,%rsp
    1008:	48 8b 05 d9 5f 00 00 	mov    0x5fd9(%rip),%rax        # 6fe8 <__gmon_start__>
    100f:	48 85 c0             	test   %rax,%rax
    1012:	74 02                	je     1016 <_init+0x16>
    1014:	ff d0                	callq  *%rax
    1016:	48 83 c4 08          	add    $0x8,%rsp
    101a:	c3                   	retq   

Disassembly of section .plt:

0000000000001020 <.plt>:
    1020:	ff 35 9a 5e 00 00    	pushq  0x5e9a(%rip)        # 6ec0 <_GLOBAL_OFFSET_TABLE_+0x8>
    1026:	f2 ff 25 9b 5e 00 00 	bnd jmpq *0x5e9b(%rip)        # 6ec8 <_GLOBAL_OFFSET_TABLE_+0x10>
    102d:	0f 1f 00             	nopl   (%rax)
    1030:	f3 0f 1e fa          	endbr64 
    1034:	68 00 00 00 00       	pushq  $0x0
    1039:	f2 e9 e1 ff ff ff    	bnd jmpq 1020 <.plt>
    103f:	90                   	nop
    1040:	f3 0f 1e fa          	endbr64 
    1044:	68 01 00 00 00       	pushq  $0x1
    1049:	f2 e9 d1 ff ff ff    	bnd jmpq 1020 <.plt>
    104f:	90                   	nop
    1050:	f3 0f 1e fa          	endbr64 
    1054:	68 02 00 00 00       	pushq  $0x2
    1059:	f2 e9 c1 ff ff ff    	bnd jmpq 1020 <.plt>
    105f:	90                   	nop
    1060:	f3 0f 1e fa          	endbr64 
    1064:	68 03 00 00 00       	pushq  $0x3
    1069:	f2 e9 b1 ff ff ff    	bnd jmpq 1020 <.plt>
    106f:	90                   	nop
    1070:	f3 0f 1e fa          	endbr64 
    1074:	68 04 00 00 00       	pushq  $0x4
    1079:	f2 e9 a1 ff ff ff    	bnd jmpq 1020 <.plt>
    107f:	90                   	nop
    1080:	f3 0f 1e fa          	endbr64 
    1084:	68 05 00 00 00       	pushq  $0x5
    1089:	f2 e9 91 ff ff ff    	bnd jmpq 1020 <.plt>
    108f:	90                   	nop
    1090:	f3 0f 1e fa          	endbr64 
    1094:	68 06 00 00 00       	pushq  $0x6
    1099:	f2 e9 81 ff ff ff    	bnd jmpq 1020 <.plt>
    109f:	90                   	nop
    10a0:	f3 0f 1e fa          	endbr64 
    10a4:	68 07 00 00 00       	pushq  $0x7
    10a9:	f2 e9 71 ff ff ff    	bnd jmpq 1020 <.plt>
    10af:	90                   	nop
    10b0:	f3 0f 1e fa          	endbr64 
    10b4:	68 08 00 00 00       	pushq  $0x8
    10b9:	f2 e9 61 ff ff ff    	bnd jmpq 1020 <.plt>
    10bf:	90                   	nop
    10c0:	f3 0f 1e fa          	endbr64 
    10c4:	68 09 00 00 00       	pushq  $0x9
    10c9:	f2 e9 51 ff ff ff    	bnd jmpq 1020 <.plt>
    10cf:	90                   	nop
    10d0:	f3 0f 1e fa          	endbr64 
    10d4:	68 0a 00 00 00       	pushq  $0xa
    10d9:	f2 e9 41 ff ff ff    	bnd jmpq 1020 <.plt>
    10df:	90                   	nop
    10e0:	f3 0f 1e fa          	endbr64 
    10e4:	68 0b 00 00 00       	pushq  $0xb
    10e9:	f2 e9 31 ff ff ff    	bnd jmpq 1020 <.plt>
    10ef:	90                   	nop
    10f0:	f3 0f 1e fa          	endbr64 
    10f4:	68 0c 00 00 00       	pushq  $0xc
    10f9:	f2 e9 21 ff ff ff    	bnd jmpq 1020 <.plt>
    10ff:	90                   	nop
    1100:	f3 0f 1e fa          	endbr64 
    1104:	68 0d 00 00 00       	pushq  $0xd
    1109:	f2 e9 11 ff ff ff    	bnd jmpq 1020 <.plt>
    110f:	90                   	nop
    1110:	f3 0f 1e fa          	endbr64 
    1114:	68 0e 00 00 00       	pushq  $0xe
    1119:	f2 e9 01 ff ff ff    	bnd jmpq 1020 <.plt>
    111f:	90                   	nop
    1120:	f3 0f 1e fa          	endbr64 
    1124:	68 0f 00 00 00       	pushq  $0xf
    1129:	f2 e9 f1 fe ff ff    	bnd jmpq 1020 <.plt>
    112f:	90                   	nop
    1130:	f3 0f 1e fa          	endbr64 
    1134:	68 10 00 00 00       	pushq  $0x10
    1139:	f2 e9 e1 fe ff ff    	bnd jmpq 1020 <.plt>
    113f:	90                   	nop
    1140:	f3 0f 1e fa          	endbr64 
    1144:	68 11 00 00 00       	pushq  $0x11
    1149:	f2 e9 d1 fe ff ff    	bnd jmpq 1020 <.plt>
    114f:	90                   	nop
    1150:	f3 0f 1e fa          	endbr64 
    1154:	68 12 00 00 00       	pushq  $0x12
    1159:	f2 e9 c1 fe ff ff    	bnd jmpq 1020 <.plt>
    115f:	90                   	nop
    1160:	f3 0f 1e fa          	endbr64 
    1164:	68 13 00 00 00       	pushq  $0x13
    1169:	f2 e9 b1 fe ff ff    	bnd jmpq 1020 <.plt>
    116f:	90                   	nop
    1170:	f3 0f 1e fa          	endbr64 
    1174:	68 14 00 00 00       	pushq  $0x14
    1179:	f2 e9 a1 fe ff ff    	bnd jmpq 1020 <.plt>
    117f:	90                   	nop
    1180:	f3 0f 1e fa          	endbr64 
    1184:	68 15 00 00 00       	pushq  $0x15
    1189:	f2 e9 91 fe ff ff    	bnd jmpq 1020 <.plt>
    118f:	90                   	nop
    1190:	f3 0f 1e fa          	endbr64 
    1194:	68 16 00 00 00       	pushq  $0x16
    1199:	f2 e9 81 fe ff ff    	bnd jmpq 1020 <.plt>
    119f:	90                   	nop
    11a0:	f3 0f 1e fa          	endbr64 
    11a4:	68 17 00 00 00       	pushq  $0x17
    11a9:	f2 e9 71 fe ff ff    	bnd jmpq 1020 <.plt>
    11af:	90                   	nop
    11b0:	f3 0f 1e fa          	endbr64 
    11b4:	68 18 00 00 00       	pushq  $0x18
    11b9:	f2 e9 61 fe ff ff    	bnd jmpq 1020 <.plt>
    11bf:	90                   	nop
    11c0:	f3 0f 1e fa          	endbr64 
    11c4:	68 19 00 00 00       	pushq  $0x19
    11c9:	f2 e9 51 fe ff ff    	bnd jmpq 1020 <.plt>
    11cf:	90                   	nop
    11d0:	f3 0f 1e fa          	endbr64 
    11d4:	68 1a 00 00 00       	pushq  $0x1a
    11d9:	f2 e9 41 fe ff ff    	bnd jmpq 1020 <.plt>
    11df:	90                   	nop
    11e0:	f3 0f 1e fa          	endbr64 
    11e4:	68 1b 00 00 00       	pushq  $0x1b
    11e9:	f2 e9 31 fe ff ff    	bnd jmpq 1020 <.plt>
    11ef:	90                   	nop
    11f0:	f3 0f 1e fa          	endbr64 
    11f4:	68 1c 00 00 00       	pushq  $0x1c
    11f9:	f2 e9 21 fe ff ff    	bnd jmpq 1020 <.plt>
    11ff:	90                   	nop
    1200:	f3 0f 1e fa          	endbr64 
    1204:	68 1d 00 00 00       	pushq  $0x1d
    1209:	f2 e9 11 fe ff ff    	bnd jmpq 1020 <.plt>
    120f:	90                   	nop
    1210:	f3 0f 1e fa          	endbr64 
    1214:	68 1e 00 00 00       	pushq  $0x1e
    1219:	f2 e9 01 fe ff ff    	bnd jmpq 1020 <.plt>
    121f:	90                   	nop
    1220:	f3 0f 1e fa          	endbr64 
    1224:	68 1f 00 00 00       	pushq  $0x1f
    1229:	f2 e9 f1 fd ff ff    	bnd jmpq 1020 <.plt>
    122f:	90                   	nop
    1230:	f3 0f 1e fa          	endbr64 
    1234:	68 20 00 00 00       	pushq  $0x20
    1239:	f2 e9 e1 fd ff ff    	bnd jmpq 1020 <.plt>
    123f:	90                   	nop

Disassembly of section .plt.got:

0000000000001240 <__cxa_finalize@plt>:
    1240:	f3 0f 1e fa          	endbr64 
    1244:	f2 ff 25 ad 5d 00 00 	bnd jmpq *0x5dad(%rip)        # 6ff8 <__cxa_finalize@GLIBC_2.2.5>
    124b:	0f 1f 44 00 00       	nopl   0x0(%rax,%rax,1)

Disassembly of section .plt.sec:

0000000000001250 <strcasecmp@plt>:
    1250:	f3 0f 1e fa          	endbr64 
    1254:	f2 ff 25 75 5c 00 00 	bnd jmpq *0x5c75(%rip)        # 6ed0 <strcasecmp@GLIBC_2.2.5>
    125b:	0f 1f 44 00 00       	nopl   0x0(%rax,%rax,1)

0000000000001260 <__errno_location@plt>:
    1260:	f3 0f 1e fa          	endbr64 
    1264:	f2 ff 25 6d 5c 00 00 	bnd jmpq *0x5c6d(%rip)        # 6ed8 <__errno_location@GLIBC_2.2.5>
    126b:	0f 1f 44 00 00       	nopl   0x0(%rax,%rax,1)

0000000000001270 <srandom@plt>:
    1270:	f3 0f 1e fa          	endbr64 
    1274:	f2 ff 25 65 5c 00 00 	bnd jmpq *0x5c65(%rip)        # 6ee0 <srandom@GLIBC_2.2.5>
    127b:	0f 1f 44 00 00       	nopl   0x0(%rax,%rax,1)

0000000000001280 <strncmp@plt>:
    1280:	f3 0f 1e fa          	endbr64 
    1284:	f2 ff 25 5d 5c 00 00 	bnd jmpq *0x5c5d(%rip)        # 6ee8 <strncmp@GLIBC_2.2.5>
    128b:	0f 1f 44 00 00       	nopl   0x0(%rax,%rax,1)

0000000000001290 <strcpy@plt>:
    1290:	f3 0f 1e fa          	endbr64 
    1294:	f2 ff 25 55 5c 00 00 	bnd jmpq *0x5c55(%rip)        # 6ef0 <strcpy@GLIBC_2.2.5>
    129b:	0f 1f 44 00 00       	nopl   0x0(%rax,%rax,1)

00000000000012a0 <puts@plt>:
    12a0:	f3 0f 1e fa          	endbr64 
    12a4:	f2 ff 25 4d 5c 00 00 	bnd jmpq *0x5c4d(%rip)        # 6ef8 <puts@GLIBC_2.2.5>
    12ab:	0f 1f 44 00 00       	nopl   0x0(%rax,%rax,1)

00000000000012b0 <write@plt>:
    12b0:	f3 0f 1e fa          	endbr64 
    12b4:	f2 ff 25 45 5c 00 00 	bnd jmpq *0x5c45(%rip)        # 6f00 <write@GLIBC_2.2.5>
    12bb:	0f 1f 44 00 00       	nopl   0x0(%rax,%rax,1)

00000000000012c0 <__stack_chk_fail@plt>:
    12c0:	f3 0f 1e fa          	endbr64 
    12c4:	f2 ff 25 3d 5c 00 00 	bnd jmpq *0x5c3d(%rip)        # 6f08 <__stack_chk_fail@GLIBC_2.4>
    12cb:	0f 1f 44 00 00       	nopl   0x0(%rax,%rax,1)

00000000000012d0 <mmap@plt>:
    12d0:	f3 0f 1e fa          	endbr64 
    12d4:	f2 ff 25 35 5c 00 00 	bnd jmpq *0x5c35(%rip)        # 6f10 <mmap@GLIBC_2.2.5>
    12db:	0f 1f 44 00 00       	nopl   0x0(%rax,%rax,1)

00000000000012e0 <memset@plt>:
    12e0:	f3 0f 1e fa          	endbr64 
    12e4:	f2 ff 25 2d 5c 00 00 	bnd jmpq *0x5c2d(%rip)        # 6f18 <memset@GLIBC_2.2.5>
    12eb:	0f 1f 44 00 00       	nopl   0x0(%rax,%rax,1)

00000000000012f0 <alarm@plt>:
    12f0:	f3 0f 1e fa          	endbr64 
    12f4:	f2 ff 25 25 5c 00 00 	bnd jmpq *0x5c25(%rip)        # 6f20 <alarm@GLIBC_2.2.5>
    12fb:	0f 1f 44 00 00       	nopl   0x0(%rax,%rax,1)

0000000000001300 <close@plt>:
    1300:	f3 0f 1e fa          	endbr64 
    1304:	f2 ff 25 1d 5c 00 00 	bnd jmpq *0x5c1d(%rip)        # 6f28 <close@GLIBC_2.2.5>
    130b:	0f 1f 44 00 00       	nopl   0x0(%rax,%rax,1)

0000000000001310 <read@plt>:
    1310:	f3 0f 1e fa          	endbr64 
    1314:	f2 ff 25 15 5c 00 00 	bnd jmpq *0x5c15(%rip)        # 6f30 <read@GLIBC_2.2.5>
    131b:	0f 1f 44 00 00       	nopl   0x0(%rax,%rax,1)

0000000000001320 <signal@plt>:
    1320:	f3 0f 1e fa          	endbr64 
    1324:	f2 ff 25 0d 5c 00 00 	bnd jmpq *0x5c0d(%rip)        # 6f38 <signal@GLIBC_2.2.5>
    132b:	0f 1f 44 00 00       	nopl   0x0(%rax,%rax,1)

0000000000001330 <gethostbyname@plt>:
    1330:	f3 0f 1e fa          	endbr64 
    1334:	f2 ff 25 05 5c 00 00 	bnd jmpq *0x5c05(%rip)        # 6f40 <gethostbyname@GLIBC_2.2.5>
    133b:	0f 1f 44 00 00       	nopl   0x0(%rax,%rax,1)

0000000000001340 <__memmove_chk@plt>:
    1340:	f3 0f 1e fa          	endbr64 
    1344:	f2 ff 25 fd 5b 00 00 	bnd jmpq *0x5bfd(%rip)        # 6f48 <__memmove_chk@GLIBC_2.3.4>
    134b:	0f 1f 44 00 00       	nopl   0x0(%rax,%rax,1)

0000000000001350 <strtol@plt>:
    1350:	f3 0f 1e fa          	endbr64 
    1354:	f2 ff 25 f5 5b 00 00 	bnd jmpq *0x5bf5(%rip)        # 6f50 <strtol@GLIBC_2.2.5>
    135b:	0f 1f 44 00 00       	nopl   0x0(%rax,%rax,1)

0000000000001360 <memcpy@plt>:
    1360:	f3 0f 1e fa          	endbr64 
    1364:	f2 ff 25 ed 5b 00 00 	bnd jmpq *0x5bed(%rip)        # 6f58 <memcpy@GLIBC_2.14>
    136b:	0f 1f 44 00 00       	nopl   0x0(%rax,%rax,1)

0000000000001370 <time@plt>:
    1370:	f3 0f 1e fa          	endbr64 
    1374:	f2 ff 25 e5 5b 00 00 	bnd jmpq *0x5be5(%rip)        # 6f60 <time@GLIBC_2.2.5>
    137b:	0f 1f 44 00 00       	nopl   0x0(%rax,%rax,1)

0000000000001380 <random@plt>:
    1380:	f3 0f 1e fa          	endbr64 
    1384:	f2 ff 25 dd 5b 00 00 	bnd jmpq *0x5bdd(%rip)        # 6f68 <random@GLIBC_2.2.5>
    138b:	0f 1f 44 00 00       	nopl   0x0(%rax,%rax,1)

0000000000001390 <__isoc99_sscanf@plt>:
    1390:	f3 0f 1e fa          	endbr64 
    1394:	f2 ff 25 d5 5b 00 00 	bnd jmpq *0x5bd5(%rip)        # 6f70 <__isoc99_sscanf@GLIBC_2.7>
    139b:	0f 1f 44 00 00       	nopl   0x0(%rax,%rax,1)

00000000000013a0 <munmap@plt>:
    13a0:	f3 0f 1e fa          	endbr64 
    13a4:	f2 ff 25 cd 5b 00 00 	bnd jmpq *0x5bcd(%rip)        # 6f78 <munmap@GLIBC_2.2.5>
    13ab:	0f 1f 44 00 00       	nopl   0x0(%rax,%rax,1)

00000000000013b0 <__printf_chk@plt>:
    13b0:	f3 0f 1e fa          	endbr64 
    13b4:	f2 ff 25 c5 5b 00 00 	bnd jmpq *0x5bc5(%rip)        # 6f80 <__printf_chk@GLIBC_2.3.4>
    13bb:	0f 1f 44 00 00       	nopl   0x0(%rax,%rax,1)

00000000000013c0 <fopen@plt>:
    13c0:	f3 0f 1e fa          	endbr64 
    13c4:	f2 ff 25 bd 5b 00 00 	bnd jmpq *0x5bbd(%rip)        # 6f88 <fopen@GLIBC_2.2.5>
    13cb:	0f 1f 44 00 00       	nopl   0x0(%rax,%rax,1)

00000000000013d0 <getopt@plt>:
    13d0:	f3 0f 1e fa          	endbr64 
    13d4:	f2 ff 25 b5 5b 00 00 	bnd jmpq *0x5bb5(%rip)        # 6f90 <getopt@GLIBC_2.2.5>
    13db:	0f 1f 44 00 00       	nopl   0x0(%rax,%rax,1)

00000000000013e0 <strtoul@plt>:
    13e0:	f3 0f 1e fa          	endbr64 
    13e4:	f2 ff 25 ad 5b 00 00 	bnd jmpq *0x5bad(%rip)        # 6f98 <strtoul@GLIBC_2.2.5>
    13eb:	0f 1f 44 00 00       	nopl   0x0(%rax,%rax,1)

00000000000013f0 <gethostname@plt>:
    13f0:	f3 0f 1e fa          	endbr64 
    13f4:	f2 ff 25 a5 5b 00 00 	bnd jmpq *0x5ba5(%rip)        # 6fa0 <gethostname@GLIBC_2.2.5>
    13fb:	0f 1f 44 00 00       	nopl   0x0(%rax,%rax,1)

0000000000001400 <exit@plt>:
    1400:	f3 0f 1e fa          	endbr64 
    1404:	f2 ff 25 9d 5b 00 00 	bnd jmpq *0x5b9d(%rip)        # 6fa8 <exit@GLIBC_2.2.5>
    140b:	0f 1f 44 00 00       	nopl   0x0(%rax,%rax,1)

0000000000001410 <connect@plt>:
    1410:	f3 0f 1e fa          	endbr64 
    1414:	f2 ff 25 95 5b 00 00 	bnd jmpq *0x5b95(%rip)        # 6fb0 <connect@GLIBC_2.2.5>
    141b:	0f 1f 44 00 00       	nopl   0x0(%rax,%rax,1)

0000000000001420 <__fprintf_chk@plt>:
    1420:	f3 0f 1e fa          	endbr64 
    1424:	f2 ff 25 8d 5b 00 00 	bnd jmpq *0x5b8d(%rip)        # 6fb8 <__fprintf_chk@GLIBC_2.3.4>
    142b:	0f 1f 44 00 00       	nopl   0x0(%rax,%rax,1)

0000000000001430 <getc@plt>:
    1430:	f3 0f 1e fa          	endbr64 
    1434:	f2 ff 25 85 5b 00 00 	bnd jmpq *0x5b85(%rip)        # 6fc0 <getc@GLIBC_2.2.5>
    143b:	0f 1f 44 00 00       	nopl   0x0(%rax,%rax,1)

0000000000001440 <__sprintf_chk@plt>:
    1440:	f3 0f 1e fa          	endbr64 
    1444:	f2 ff 25 7d 5b 00 00 	bnd jmpq *0x5b7d(%rip)        # 6fc8 <__sprintf_chk@GLIBC_2.3.4>
    144b:	0f 1f 44 00 00       	nopl   0x0(%rax,%rax,1)

0000000000001450 <socket@plt>:
    1450:	f3 0f 1e fa          	endbr64 
    1454:	f2 ff 25 75 5b 00 00 	bnd jmpq *0x5b75(%rip)        # 6fd0 <socket@GLIBC_2.2.5>
    145b:	0f 1f 44 00 00       	nopl   0x0(%rax,%rax,1)

Disassembly of section .text:

0000000000001460 <_start>:
    1460:	f3 0f 1e fa          	endbr64 
    1464:	31 ed                	xor    %ebp,%ebp
    1466:	49 89 d1             	mov    %rdx,%r9
    1469:	5e                   	pop    %rsi
    146a:	48 89 e2             	mov    %rsp,%rdx
    146d:	48 83 e4 f0          	and    $0xfffffffffffffff0,%rsp
    1471:	50                   	push   %rax
    1472:	54                   	push   %rsp
    1473:	4c 8d 05 e6 23 00 00 	lea    0x23e6(%rip),%r8        # 3860 <__libc_csu_fini>
    147a:	48 8d 0d 6f 23 00 00 	lea    0x236f(%rip),%rcx        # 37f0 <__libc_csu_init>
    1481:	48 8d 3d 04 03 00 00 	lea    0x304(%rip),%rdi        # 178c <main>
    1488:	ff 15 52 5b 00 00    	callq  *0x5b52(%rip)        # 6fe0 <__libc_start_main@GLIBC_2.2.5>
    148e:	f4                   	hlt    
    148f:	90                   	nop

0000000000001490 <deregister_tm_clones>:
    1490:	48 8d 3d d9 5e 00 00 	lea    0x5ed9(%rip),%rdi        # 7370 <__TMC_END__>
    1497:	48 8d 05 d2 5e 00 00 	lea    0x5ed2(%rip),%rax        # 7370 <__TMC_END__>
    149e:	48 39 f8             	cmp    %rdi,%rax
    14a1:	74 15                	je     14b8 <deregister_tm_clones+0x28>
    14a3:	48 8b 05 2e 5b 00 00 	mov    0x5b2e(%rip),%rax        # 6fd8 <_ITM_deregisterTMCloneTable>
    14aa:	48 85 c0             	test   %rax,%rax
    14ad:	74 09                	je     14b8 <deregister_tm_clones+0x28>
    14af:	ff e0                	jmpq   *%rax
    14b1:	0f 1f 80 00 00 00 00 	nopl   0x0(%rax)
    14b8:	c3                   	retq   
    14b9:	0f 1f 80 00 00 00 00 	nopl   0x0(%rax)

00000000000014c0 <register_tm_clones>:
    14c0:	48 8d 3d a9 5e 00 00 	lea    0x5ea9(%rip),%rdi        # 7370 <__TMC_END__>
    14c7:	48 8d 35 a2 5e 00 00 	lea    0x5ea2(%rip),%rsi        # 7370 <__TMC_END__>
    14ce:	48 29 fe             	sub    %rdi,%rsi
    14d1:	48 89 f0             	mov    %rsi,%rax
    14d4:	48 c1 ee 3f          	shr    $0x3f,%rsi
    14d8:	48 c1 f8 03          	sar    $0x3,%rax
    14dc:	48 01 c6             	add    %rax,%rsi
    14df:	48 d1 fe             	sar    %rsi
    14e2:	74 14                	je     14f8 <register_tm_clones+0x38>
    14e4:	48 8b 05 05 5b 00 00 	mov    0x5b05(%rip),%rax        # 6ff0 <_ITM_registerTMCloneTable>
    14eb:	48 85 c0             	test   %rax,%rax
    14ee:	74 08                	je     14f8 <register_tm_clones+0x38>
    14f0:	ff e0                	jmpq   *%rax
    14f2:	66 0f 1f 44 00 00    	nopw   0x0(%rax,%rax,1)
    14f8:	c3                   	retq   
    14f9:	0f 1f 80 00 00 00 00 	nopl   0x0(%rax)

0000000000001500 <__do_global_dtors_aux>:
    1500:	f3 0f 1e fa          	endbr64 
    1504:	80 3d 9d 5e 00 00 00 	cmpb   $0x0,0x5e9d(%rip)        # 73a8 <completed.8060>
    150b:	75 2b                	jne    1538 <__do_global_dtors_aux+0x38>
    150d:	55                   	push   %rbp
    150e:	48 83 3d e2 5a 00 00 	cmpq   $0x0,0x5ae2(%rip)        # 6ff8 <__cxa_finalize@GLIBC_2.2.5>
    1515:	00 
    1516:	48 89 e5             	mov    %rsp,%rbp
    1519:	74 0c                	je     1527 <__do_global_dtors_aux+0x27>
    151b:	48 8b 3d e6 5a 00 00 	mov    0x5ae6(%rip),%rdi        # 7008 <__dso_handle>
    1522:	e8 19 fd ff ff       	callq  1240 <__cxa_finalize@plt>
    1527:	e8 64 ff ff ff       	callq  1490 <deregister_tm_clones>
    152c:	c6 05 75 5e 00 00 01 	movb   $0x1,0x5e75(%rip)        # 73a8 <completed.8060>
    1533:	5d                   	pop    %rbp
    1534:	c3                   	retq   
    1535:	0f 1f 00             	nopl   (%rax)
    1538:	c3                   	retq   
    1539:	0f 1f 80 00 00 00 00 	nopl   0x0(%rax)

0000000000001540 <frame_dummy>:
    1540:	f3 0f 1e fa          	endbr64 
    1544:	e9 77 ff ff ff       	jmpq   14c0 <register_tm_clones>

0000000000001549 <usage>:
    1549:	50                   	push   %rax
    154a:	58                   	pop    %rax
    154b:	48 83 ec 08          	sub    $0x8,%rsp
    154f:	48 89 fa             	mov    %rdi,%rdx
    1552:	83 3d 8f 5e 00 00 00 	cmpl   $0x0,0x5e8f(%rip)        # 73e8 <is_checker>
    1559:	74 50                	je     15ab <usage+0x62>
    155b:	48 8d 35 a6 2a 00 00 	lea    0x2aa6(%rip),%rsi        # 4008 <_IO_stdin_used+0x8>
    1562:	bf 01 00 00 00       	mov    $0x1,%edi
    1567:	b8 00 00 00 00       	mov    $0x0,%eax
    156c:	e8 3f fe ff ff       	callq  13b0 <__printf_chk@plt>
    1571:	48 8d 3d c8 2a 00 00 	lea    0x2ac8(%rip),%rdi        # 4040 <_IO_stdin_used+0x40>
    1578:	e8 23 fd ff ff       	callq  12a0 <puts@plt>
    157d:	48 8d 3d 34 2c 00 00 	lea    0x2c34(%rip),%rdi        # 41b8 <_IO_stdin_used+0x1b8>
    1584:	e8 17 fd ff ff       	callq  12a0 <puts@plt>
    1589:	48 8d 3d d8 2a 00 00 	lea    0x2ad8(%rip),%rdi        # 4068 <_IO_stdin_used+0x68>
    1590:	e8 0b fd ff ff       	callq  12a0 <puts@plt>
    1595:	48 8d 3d 36 2c 00 00 	lea    0x2c36(%rip),%rdi        # 41d2 <_IO_stdin_used+0x1d2>
    159c:	e8 ff fc ff ff       	callq  12a0 <puts@plt>
    15a1:	bf 00 00 00 00       	mov    $0x0,%edi
    15a6:	e8 55 fe ff ff       	callq  1400 <exit@plt>
    15ab:	48 8d 35 3c 2c 00 00 	lea    0x2c3c(%rip),%rsi        # 41ee <_IO_stdin_used+0x1ee>
    15b2:	bf 01 00 00 00       	mov    $0x1,%edi
    15b7:	b8 00 00 00 00       	mov    $0x0,%eax
    15bc:	e8 ef fd ff ff       	callq  13b0 <__printf_chk@plt>
    15c1:	48 8d 3d c8 2a 00 00 	lea    0x2ac8(%rip),%rdi        # 4090 <_IO_stdin_used+0x90>
    15c8:	e8 d3 fc ff ff       	callq  12a0 <puts@plt>
    15cd:	48 8d 3d e4 2a 00 00 	lea    0x2ae4(%rip),%rdi        # 40b8 <_IO_stdin_used+0xb8>
    15d4:	e8 c7 fc ff ff       	callq  12a0 <puts@plt>
    15d9:	48 8d 3d 2c 2c 00 00 	lea    0x2c2c(%rip),%rdi        # 420c <_IO_stdin_used+0x20c>
    15e0:	e8 bb fc ff ff       	callq  12a0 <puts@plt>
    15e5:	eb ba                	jmp    15a1 <usage+0x58>

00000000000015e7 <initialize_target>:
    15e7:	55                   	push   %rbp
    15e8:	53                   	push   %rbx
    15e9:	48 81 ec 00 10 00 00 	sub    $0x1000,%rsp
    15f0:	48 83 0c 24 00       	orq    $0x0,(%rsp)
    15f5:	48 81 ec 00 10 00 00 	sub    $0x1000,%rsp
    15fc:	48 83 0c 24 00       	orq    $0x0,(%rsp)
    1601:	48 81 ec 18 01 00 00 	sub    $0x118,%rsp
    1608:	89 f5                	mov    %esi,%ebp
    160a:	64 48 8b 04 25 28 00 	mov    %fs:0x28,%rax
    1611:	00 00 
    1613:	48 89 84 24 08 21 00 	mov    %rax,0x2108(%rsp)
    161a:	00 
    161b:	31 c0                	xor    %eax,%eax
    161d:	89 3d b5 5d 00 00    	mov    %edi,0x5db5(%rip)        # 73d8 <check_level>
    1623:	8b 3d e7 59 00 00    	mov    0x59e7(%rip),%edi        # 7010 <target_id>
    1629:	e8 93 21 00 00       	callq  37c1 <gencookie>
    162e:	89 c7                	mov    %eax,%edi
    1630:	89 05 ae 5d 00 00    	mov    %eax,0x5dae(%rip)        # 73e4 <cookie>
    1636:	e8 86 21 00 00       	callq  37c1 <gencookie>
    163b:	89 05 9f 5d 00 00    	mov    %eax,0x5d9f(%rip)        # 73e0 <authkey>
    1641:	8b 05 c9 59 00 00    	mov    0x59c9(%rip),%eax        # 7010 <target_id>
    1647:	8d 78 01             	lea    0x1(%rax),%edi
    164a:	e8 21 fc ff ff       	callq  1270 <srandom@plt>
    164f:	e8 2c fd ff ff       	callq  1380 <random@plt>
    1654:	48 89 c7             	mov    %rax,%rdi
    1657:	e8 20 03 00 00       	callq  197c <scramble>
    165c:	89 c3                	mov    %eax,%ebx
    165e:	85 ed                	test   %ebp,%ebp
    1660:	75 54                	jne    16b6 <initialize_target+0xcf>
    1662:	b8 00 00 00 00       	mov    $0x0,%eax
    1667:	01 d8                	add    %ebx,%eax
    1669:	0f b7 c0             	movzwl %ax,%eax
    166c:	8d 04 c5 00 01 00 00 	lea    0x100(,%rax,8),%eax
    1673:	89 c0                	mov    %eax,%eax
    1675:	48 89 05 e4 5c 00 00 	mov    %rax,0x5ce4(%rip)        # 7360 <buf_offset>
    167c:	c6 05 85 69 00 00 72 	movb   $0x72,0x6985(%rip)        # 8008 <target_prefix>
    1683:	83 3d de 5c 00 00 00 	cmpl   $0x0,0x5cde(%rip)        # 7368 <notify>
    168a:	74 09                	je     1695 <initialize_target+0xae>
    168c:	83 3d 55 5d 00 00 00 	cmpl   $0x0,0x5d55(%rip)        # 73e8 <is_checker>
    1693:	74 3a                	je     16cf <initialize_target+0xe8>
    1695:	48 8b 84 24 08 21 00 	mov    0x2108(%rsp),%rax
    169c:	00 
    169d:	64 48 33 04 25 28 00 	xor    %fs:0x28,%rax
    16a4:	00 00 
    16a6:	0f 85 db 00 00 00    	jne    1787 <initialize_target+0x1a0>
    16ac:	48 81 c4 18 21 00 00 	add    $0x2118,%rsp
    16b3:	5b                   	pop    %rbx
    16b4:	5d                   	pop    %rbp
    16b5:	c3                   	retq   
    16b6:	bf 00 00 00 00       	mov    $0x0,%edi
    16bb:	e8 b0 fc ff ff       	callq  1370 <time@plt>
    16c0:	48 89 c7             	mov    %rax,%rdi
    16c3:	e8 a8 fb ff ff       	callq  1270 <srandom@plt>
    16c8:	e8 b3 fc ff ff       	callq  1380 <random@plt>
    16cd:	eb 98                	jmp    1667 <initialize_target+0x80>
    16cf:	48 89 e7             	mov    %rsp,%rdi
    16d2:	be 00 01 00 00       	mov    $0x100,%esi
    16d7:	e8 14 fd ff ff       	callq  13f0 <gethostname@plt>
    16dc:	89 c5                	mov    %eax,%ebp
    16de:	85 c0                	test   %eax,%eax
    16e0:	75 26                	jne    1708 <initialize_target+0x121>
    16e2:	89 c3                	mov    %eax,%ebx
    16e4:	48 63 c3             	movslq %ebx,%rax
    16e7:	48 8d 15 52 59 00 00 	lea    0x5952(%rip),%rdx        # 7040 <host_table>
    16ee:	48 8b 3c c2          	mov    (%rdx,%rax,8),%rdi
    16f2:	48 85 ff             	test   %rdi,%rdi
    16f5:	74 2c                	je     1723 <initialize_target+0x13c>
    16f7:	48 89 e6             	mov    %rsp,%rsi
    16fa:	e8 51 fb ff ff       	callq  1250 <strcasecmp@plt>
    16ff:	85 c0                	test   %eax,%eax
    1701:	74 1b                	je     171e <initialize_target+0x137>
    1703:	83 c3 01             	add    $0x1,%ebx
    1706:	eb dc                	jmp    16e4 <initialize_target+0xfd>
    1708:	48 8d 3d d9 29 00 00 	lea    0x29d9(%rip),%rdi        # 40e8 <_IO_stdin_used+0xe8>
    170f:	e8 8c fb ff ff       	callq  12a0 <puts@plt>
    1714:	bf 08 00 00 00       	mov    $0x8,%edi
    1719:	e8 e2 fc ff ff       	callq  1400 <exit@plt>
    171e:	bd 01 00 00 00       	mov    $0x1,%ebp
    1723:	85 ed                	test   %ebp,%ebp
    1725:	74 3d                	je     1764 <initialize_target+0x17d>
    1727:	48 8d bc 24 00 01 00 	lea    0x100(%rsp),%rdi
    172e:	00 
    172f:	e8 d2 1d 00 00       	callq  3506 <init_driver>
    1734:	85 c0                	test   %eax,%eax
    1736:	0f 89 59 ff ff ff    	jns    1695 <initialize_target+0xae>
    173c:	48 8d 94 24 00 01 00 	lea    0x100(%rsp),%rdx
    1743:	00 
    1744:	48 8d 35 15 2a 00 00 	lea    0x2a15(%rip),%rsi        # 4160 <_IO_stdin_used+0x160>
    174b:	bf 01 00 00 00       	mov    $0x1,%edi
    1750:	b8 00 00 00 00       	mov    $0x0,%eax
    1755:	e8 56 fc ff ff       	callq  13b0 <__printf_chk@plt>
    175a:	bf 08 00 00 00       	mov    $0x8,%edi
    175f:	e8 9c fc ff ff       	callq  1400 <exit@plt>
    1764:	48 89 e2             	mov    %rsp,%rdx
    1767:	48 8d 35 b2 29 00 00 	lea    0x29b2(%rip),%rsi        # 4120 <_IO_stdin_used+0x120>
    176e:	bf 01 00 00 00       	mov    $0x1,%edi
    1773:	b8 00 00 00 00       	mov    $0x0,%eax
    1778:	e8 33 fc ff ff       	callq  13b0 <__printf_chk@plt>
    177d:	bf 08 00 00 00       	mov    $0x8,%edi
    1782:	e8 79 fc ff ff       	callq  1400 <exit@plt>
    1787:	e8 34 fb ff ff       	callq  12c0 <__stack_chk_fail@plt>

000000000000178c <main>:
    178c:	f3 0f 1e fa          	endbr64 
    1790:	41 56                	push   %r14
    1792:	41 55                	push   %r13
    1794:	41 54                	push   %r12
    1796:	55                   	push   %rbp
    1797:	53                   	push   %rbx
    1798:	89 fd                	mov    %edi,%ebp
    179a:	48 89 f3             	mov    %rsi,%rbx
    179d:	48 8d 35 05 10 00 00 	lea    0x1005(%rip),%rsi        # 27a9 <seghandler>
    17a4:	bf 0b 00 00 00       	mov    $0xb,%edi
    17a9:	e8 72 fb ff ff       	callq  1320 <signal@plt>
    17ae:	48 8d 35 9a 0f 00 00 	lea    0xf9a(%rip),%rsi        # 274f <bushandler>
    17b5:	bf 07 00 00 00       	mov    $0x7,%edi
    17ba:	e8 61 fb ff ff       	callq  1320 <signal@plt>
    17bf:	48 8d 35 3d 10 00 00 	lea    0x103d(%rip),%rsi        # 2803 <illegalhandler>
    17c6:	bf 04 00 00 00       	mov    $0x4,%edi
    17cb:	e8 50 fb ff ff       	callq  1320 <signal@plt>
    17d0:	83 3d 11 5c 00 00 00 	cmpl   $0x0,0x5c11(%rip)        # 73e8 <is_checker>
    17d7:	75 26                	jne    17ff <main+0x73>
    17d9:	4c 8d 25 4d 2a 00 00 	lea    0x2a4d(%rip),%r12        # 422d <_IO_stdin_used+0x22d>
    17e0:	48 8b 05 99 5b 00 00 	mov    0x5b99(%rip),%rax        # 7380 <stdin@@GLIBC_2.2.5>
    17e7:	48 89 05 e2 5b 00 00 	mov    %rax,0x5be2(%rip)        # 73d0 <infile>
    17ee:	41 bd 00 00 00 00    	mov    $0x0,%r13d
    17f4:	41 be 00 00 00 00    	mov    $0x0,%r14d
    17fa:	e9 8d 00 00 00       	jmpq   188c <main+0x100>
    17ff:	48 8d 35 57 10 00 00 	lea    0x1057(%rip),%rsi        # 285d <sigalrmhandler>
    1806:	bf 0e 00 00 00       	mov    $0xe,%edi
    180b:	e8 10 fb ff ff       	callq  1320 <signal@plt>
    1810:	bf 05 00 00 00       	mov    $0x5,%edi
    1815:	e8 d6 fa ff ff       	callq  12f0 <alarm@plt>
    181a:	4c 8d 25 04 2a 00 00 	lea    0x2a04(%rip),%r12        # 4225 <_IO_stdin_used+0x225>
    1821:	eb bd                	jmp    17e0 <main+0x54>
    1823:	48 8b 3b             	mov    (%rbx),%rdi
    1826:	e8 1e fd ff ff       	callq  1549 <usage>
    182b:	48 8d 35 e3 2c 00 00 	lea    0x2ce3(%rip),%rsi        # 4515 <_IO_stdin_used+0x515>
    1832:	48 8b 3d 4f 5b 00 00 	mov    0x5b4f(%rip),%rdi        # 7388 <optarg@@GLIBC_2.2.5>
    1839:	e8 82 fb ff ff       	callq  13c0 <fopen@plt>
    183e:	48 89 05 8b 5b 00 00 	mov    %rax,0x5b8b(%rip)        # 73d0 <infile>
    1845:	48 85 c0             	test   %rax,%rax
    1848:	75 42                	jne    188c <main+0x100>
    184a:	48 8b 0d 37 5b 00 00 	mov    0x5b37(%rip),%rcx        # 7388 <optarg@@GLIBC_2.2.5>
    1851:	48 8d 15 da 29 00 00 	lea    0x29da(%rip),%rdx        # 4232 <_IO_stdin_used+0x232>
    1858:	be 01 00 00 00       	mov    $0x1,%esi
    185d:	48 8b 3d 3c 5b 00 00 	mov    0x5b3c(%rip),%rdi        # 73a0 <stderr@@GLIBC_2.2.5>
    1864:	e8 b7 fb ff ff       	callq  1420 <__fprintf_chk@plt>
    1869:	b8 01 00 00 00       	mov    $0x1,%eax
    186e:	e9 db 00 00 00       	jmpq   194e <main+0x1c2>
    1873:	ba 10 00 00 00       	mov    $0x10,%edx
    1878:	be 00 00 00 00       	mov    $0x0,%esi
    187d:	48 8b 3d 04 5b 00 00 	mov    0x5b04(%rip),%rdi        # 7388 <optarg@@GLIBC_2.2.5>
    1884:	e8 57 fb ff ff       	callq  13e0 <strtoul@plt>
    1889:	41 89 c6             	mov    %eax,%r14d
    188c:	4c 89 e2             	mov    %r12,%rdx
    188f:	48 89 de             	mov    %rbx,%rsi
    1892:	89 ef                	mov    %ebp,%edi
    1894:	e8 37 fb ff ff       	callq  13d0 <getopt@plt>
    1899:	3c ff                	cmp    $0xff,%al
    189b:	74 65                	je     1902 <main+0x176>
    189d:	0f be c8             	movsbl %al,%ecx
    18a0:	83 e8 61             	sub    $0x61,%eax
    18a3:	3c 10                	cmp    $0x10,%al
    18a5:	77 3b                	ja     18e2 <main+0x156>
    18a7:	0f b6 c0             	movzbl %al,%eax
    18aa:	48 8d 15 bf 29 00 00 	lea    0x29bf(%rip),%rdx        # 4270 <_IO_stdin_used+0x270>
    18b1:	48 63 04 82          	movslq (%rdx,%rax,4),%rax
    18b5:	48 01 d0             	add    %rdx,%rax
    18b8:	3e ff e0             	notrack jmpq *%rax
    18bb:	ba 0a 00 00 00       	mov    $0xa,%edx
    18c0:	be 00 00 00 00       	mov    $0x0,%esi
    18c5:	48 8b 3d bc 5a 00 00 	mov    0x5abc(%rip),%rdi        # 7388 <optarg@@GLIBC_2.2.5>
    18cc:	e8 7f fa ff ff       	callq  1350 <strtol@plt>
    18d1:	41 89 c5             	mov    %eax,%r13d
    18d4:	eb b6                	jmp    188c <main+0x100>
    18d6:	c7 05 88 5a 00 00 00 	movl   $0x0,0x5a88(%rip)        # 7368 <notify>
    18dd:	00 00 00 
    18e0:	eb aa                	jmp    188c <main+0x100>
    18e2:	89 ca                	mov    %ecx,%edx
    18e4:	48 8d 35 64 29 00 00 	lea    0x2964(%rip),%rsi        # 424f <_IO_stdin_used+0x24f>
    18eb:	bf 01 00 00 00       	mov    $0x1,%edi
    18f0:	b8 00 00 00 00       	mov    $0x0,%eax
    18f5:	e8 b6 fa ff ff       	callq  13b0 <__printf_chk@plt>
    18fa:	48 8b 3b             	mov    (%rbx),%rdi
    18fd:	e8 47 fc ff ff       	callq  1549 <usage>
    1902:	be 01 00 00 00       	mov    $0x1,%esi
    1907:	44 89 ef             	mov    %r13d,%edi
    190a:	e8 d8 fc ff ff       	callq  15e7 <initialize_target>
    190f:	83 3d d2 5a 00 00 00 	cmpl   $0x0,0x5ad2(%rip)        # 73e8 <is_checker>
    1916:	74 09                	je     1921 <main+0x195>
    1918:	44 39 35 c1 5a 00 00 	cmp    %r14d,0x5ac1(%rip)        # 73e0 <authkey>
    191f:	75 36                	jne    1957 <main+0x1cb>
    1921:	8b 15 bd 5a 00 00    	mov    0x5abd(%rip),%edx        # 73e4 <cookie>
    1927:	48 8d 35 34 29 00 00 	lea    0x2934(%rip),%rsi        # 4262 <_IO_stdin_used+0x262>
    192e:	bf 01 00 00 00       	mov    $0x1,%edi
    1933:	b8 00 00 00 00       	mov    $0x0,%eax
    1938:	e8 73 fa ff ff       	callq  13b0 <__printf_chk@plt>
    193d:	48 8b 3d 1c 5a 00 00 	mov    0x5a1c(%rip),%rdi        # 7360 <buf_offset>
    1944:	e8 71 0f 00 00       	callq  28ba <launch>
    1949:	b8 00 00 00 00       	mov    $0x0,%eax
    194e:	5b                   	pop    %rbx
    194f:	5d                   	pop    %rbp
    1950:	41 5c                	pop    %r12
    1952:	41 5d                	pop    %r13
    1954:	41 5e                	pop    %r14
    1956:	c3                   	retq   
    1957:	44 89 f2             	mov    %r14d,%edx
    195a:	48 8d 35 27 28 00 00 	lea    0x2827(%rip),%rsi        # 4188 <_IO_stdin_used+0x188>
    1961:	bf 01 00 00 00       	mov    $0x1,%edi
    1966:	b8 00 00 00 00       	mov    $0x0,%eax
    196b:	e8 40 fa ff ff       	callq  13b0 <__printf_chk@plt>
    1970:	b8 00 00 00 00       	mov    $0x0,%eax
    1975:	e8 24 0a 00 00       	callq  239e <check_fail>
    197a:	eb a5                	jmp    1921 <main+0x195>

000000000000197c <scramble>:
    197c:	f3 0f 1e fa          	endbr64 
    1980:	48 83 ec 38          	sub    $0x38,%rsp
    1984:	64 48 8b 04 25 28 00 	mov    %fs:0x28,%rax
    198b:	00 00 
    198d:	48 89 44 24 28       	mov    %rax,0x28(%rsp)
    1992:	31 c0                	xor    %eax,%eax
    1994:	83 f8 09             	cmp    $0x9,%eax
    1997:	77 12                	ja     19ab <scramble+0x2f>
    1999:	69 d0 01 73 00 00    	imul   $0x7301,%eax,%edx
    199f:	01 fa                	add    %edi,%edx
    19a1:	89 c1                	mov    %eax,%ecx
    19a3:	89 14 8c             	mov    %edx,(%rsp,%rcx,4)
    19a6:	83 c0 01             	add    $0x1,%eax
    19a9:	eb e9                	jmp    1994 <scramble+0x18>
    19ab:	8b 44 24 24          	mov    0x24(%rsp),%eax
    19af:	69 c0 ae 89 00 00    	imul   $0x89ae,%eax,%eax
    19b5:	89 44 24 24          	mov    %eax,0x24(%rsp)
    19b9:	8b 44 24 18          	mov    0x18(%rsp),%eax
    19bd:	69 c0 ac 23 00 00    	imul   $0x23ac,%eax,%eax
    19c3:	89 44 24 18          	mov    %eax,0x18(%rsp)
    19c7:	8b 44 24 08          	mov    0x8(%rsp),%eax
    19cb:	69 c0 31 82 00 00    	imul   $0x8231,%eax,%eax
    19d1:	89 44 24 08          	mov    %eax,0x8(%rsp)
    19d5:	8b 44 24 08          	mov    0x8(%rsp),%eax
    19d9:	69 c0 b9 39 00 00    	imul   $0x39b9,%eax,%eax
    19df:	89 44 24 08          	mov    %eax,0x8(%rsp)
    19e3:	8b 04 24             	mov    (%rsp),%eax
    19e6:	69 c0 08 9a 00 00    	imul   $0x9a08,%eax,%eax
    19ec:	89 04 24             	mov    %eax,(%rsp)
    19ef:	8b 44 24 14          	mov    0x14(%rsp),%eax
    19f3:	69 c0 1a f7 00 00    	imul   $0xf71a,%eax,%eax
    19f9:	89 44 24 14          	mov    %eax,0x14(%rsp)
    19fd:	8b 44 24 14          	mov    0x14(%rsp),%eax
    1a01:	69 c0 bd 6e 00 00    	imul   $0x6ebd,%eax,%eax
    1a07:	89 44 24 14          	mov    %eax,0x14(%rsp)
    1a0b:	8b 44 24 04          	mov    0x4(%rsp),%eax
    1a0f:	69 c0 14 ad 00 00    	imul   $0xad14,%eax,%eax
    1a15:	89 44 24 04          	mov    %eax,0x4(%rsp)
    1a19:	8b 44 24 20          	mov    0x20(%rsp),%eax
    1a1d:	69 c0 36 12 00 00    	imul   $0x1236,%eax,%eax
    1a23:	89 44 24 20          	mov    %eax,0x20(%rsp)
    1a27:	8b 44 24 04          	mov    0x4(%rsp),%eax
    1a2b:	69 c0 9d 12 00 00    	imul   $0x129d,%eax,%eax
    1a31:	89 44 24 04          	mov    %eax,0x4(%rsp)
    1a35:	8b 44 24 18          	mov    0x18(%rsp),%eax
    1a39:	69 c0 00 75 00 00    	imul   $0x7500,%eax,%eax
    1a3f:	89 44 24 18          	mov    %eax,0x18(%rsp)
    1a43:	8b 44 24 08          	mov    0x8(%rsp),%eax
    1a47:	69 c0 dd 13 00 00    	imul   $0x13dd,%eax,%eax
    1a4d:	89 44 24 08          	mov    %eax,0x8(%rsp)
    1a51:	8b 44 24 08          	mov    0x8(%rsp),%eax
    1a55:	69 c0 06 b2 00 00    	imul   $0xb206,%eax,%eax
    1a5b:	89 44 24 08          	mov    %eax,0x8(%rsp)
    1a5f:	8b 44 24 18          	mov    0x18(%rsp),%eax
    1a63:	69 c0 56 2d 00 00    	imul   $0x2d56,%eax,%eax
    1a69:	89 44 24 18          	mov    %eax,0x18(%rsp)
    1a6d:	8b 44 24 24          	mov    0x24(%rsp),%eax
    1a71:	69 c0 2e 30 00 00    	imul   $0x302e,%eax,%eax
    1a77:	89 44 24 24          	mov    %eax,0x24(%rsp)
    1a7b:	8b 44 24 08          	mov    0x8(%rsp),%eax
    1a7f:	69 c0 68 b7 00 00    	imul   $0xb768,%eax,%eax
    1a85:	89 44 24 08          	mov    %eax,0x8(%rsp)
    1a89:	8b 04 24             	mov    (%rsp),%eax
    1a8c:	69 c0 6f dc 00 00    	imul   $0xdc6f,%eax,%eax
    1a92:	89 04 24             	mov    %eax,(%rsp)
    1a95:	8b 44 24 08          	mov    0x8(%rsp),%eax
    1a99:	69 c0 7c d1 00 00    	imul   $0xd17c,%eax,%eax
    1a9f:	89 44 24 08          	mov    %eax,0x8(%rsp)
    1aa3:	8b 44 24 10          	mov    0x10(%rsp),%eax
    1aa7:	69 c0 1c 5d 00 00    	imul   $0x5d1c,%eax,%eax
    1aad:	89 44 24 10          	mov    %eax,0x10(%rsp)
    1ab1:	8b 44 24 1c          	mov    0x1c(%rsp),%eax
    1ab5:	69 c0 b6 83 00 00    	imul   $0x83b6,%eax,%eax
    1abb:	89 44 24 1c          	mov    %eax,0x1c(%rsp)
    1abf:	8b 44 24 18          	mov    0x18(%rsp),%eax
    1ac3:	69 c0 ae 48 00 00    	imul   $0x48ae,%eax,%eax
    1ac9:	89 44 24 18          	mov    %eax,0x18(%rsp)
    1acd:	8b 44 24 1c          	mov    0x1c(%rsp),%eax
    1ad1:	69 c0 50 d3 00 00    	imul   $0xd350,%eax,%eax
    1ad7:	89 44 24 1c          	mov    %eax,0x1c(%rsp)
    1adb:	8b 44 24 08          	mov    0x8(%rsp),%eax
    1adf:	69 c0 7b 22 00 00    	imul   $0x227b,%eax,%eax
    1ae5:	89 44 24 08          	mov    %eax,0x8(%rsp)
    1ae9:	8b 44 24 24          	mov    0x24(%rsp),%eax
    1aed:	69 c0 b8 0e 00 00    	imul   $0xeb8,%eax,%eax
    1af3:	89 44 24 24          	mov    %eax,0x24(%rsp)
    1af7:	8b 44 24 04          	mov    0x4(%rsp),%eax
    1afb:	69 c0 41 24 00 00    	imul   $0x2441,%eax,%eax
    1b01:	89 44 24 04          	mov    %eax,0x4(%rsp)
    1b05:	8b 44 24 0c          	mov    0xc(%rsp),%eax
    1b09:	69 c0 47 9e 00 00    	imul   $0x9e47,%eax,%eax
    1b0f:	89 44 24 0c          	mov    %eax,0xc(%rsp)
    1b13:	8b 44 24 18          	mov    0x18(%rsp),%eax
    1b17:	69 c0 4f 45 00 00    	imul   $0x454f,%eax,%eax
    1b1d:	89 44 24 18          	mov    %eax,0x18(%rsp)
    1b21:	8b 44 24 18          	mov    0x18(%rsp),%eax
    1b25:	69 c0 09 f3 00 00    	imul   $0xf309,%eax,%eax
    1b2b:	89 44 24 18          	mov    %eax,0x18(%rsp)
    1b2f:	8b 44 24 1c          	mov    0x1c(%rsp),%eax
    1b33:	69 c0 3c ba 00 00    	imul   $0xba3c,%eax,%eax
    1b39:	89 44 24 1c          	mov    %eax,0x1c(%rsp)
    1b3d:	8b 04 24             	mov    (%rsp),%eax
    1b40:	69 c0 bc 3b 00 00    	imul   $0x3bbc,%eax,%eax
    1b46:	89 04 24             	mov    %eax,(%rsp)
    1b49:	8b 44 24 18          	mov    0x18(%rsp),%eax
    1b4d:	69 c0 f9 ff 00 00    	imul   $0xfff9,%eax,%eax
    1b53:	89 44 24 18          	mov    %eax,0x18(%rsp)
    1b57:	8b 44 24 08          	mov    0x8(%rsp),%eax
    1b5b:	69 c0 46 a4 00 00    	imul   $0xa446,%eax,%eax
    1b61:	89 44 24 08          	mov    %eax,0x8(%rsp)
    1b65:	8b 44 24 10          	mov    0x10(%rsp),%eax
    1b69:	69 c0 39 ce 00 00    	imul   $0xce39,%eax,%eax
    1b6f:	89 44 24 10          	mov    %eax,0x10(%rsp)
    1b73:	8b 44 24 0c          	mov    0xc(%rsp),%eax
    1b77:	69 c0 08 3b 00 00    	imul   $0x3b08,%eax,%eax
    1b7d:	89 44 24 0c          	mov    %eax,0xc(%rsp)
    1b81:	8b 44 24 08          	mov    0x8(%rsp),%eax
    1b85:	69 c0 f8 80 00 00    	imul   $0x80f8,%eax,%eax
    1b8b:	89 44 24 08          	mov    %eax,0x8(%rsp)
    1b8f:	8b 44 24 1c          	mov    0x1c(%rsp),%eax
    1b93:	69 c0 7a 22 00 00    	imul   $0x227a,%eax,%eax
    1b99:	89 44 24 1c          	mov    %eax,0x1c(%rsp)
    1b9d:	8b 44 24 18          	mov    0x18(%rsp),%eax
    1ba1:	69 c0 8e 39 00 00    	imul   $0x398e,%eax,%eax
    1ba7:	89 44 24 18          	mov    %eax,0x18(%rsp)
    1bab:	8b 44 24 08          	mov    0x8(%rsp),%eax
    1baf:	69 c0 12 81 00 00    	imul   $0x8112,%eax,%eax
    1bb5:	89 44 24 08          	mov    %eax,0x8(%rsp)
    1bb9:	8b 44 24 24          	mov    0x24(%rsp),%eax
    1bbd:	69 c0 2f 76 00 00    	imul   $0x762f,%eax,%eax
    1bc3:	89 44 24 24          	mov    %eax,0x24(%rsp)
    1bc7:	8b 44 24 08          	mov    0x8(%rsp),%eax
    1bcb:	69 c0 bb 90 00 00    	imul   $0x90bb,%eax,%eax
    1bd1:	89 44 24 08          	mov    %eax,0x8(%rsp)
    1bd5:	8b 44 24 18          	mov    0x18(%rsp),%eax
    1bd9:	69 c0 20 b1 00 00    	imul   $0xb120,%eax,%eax
    1bdf:	89 44 24 18          	mov    %eax,0x18(%rsp)
    1be3:	8b 44 24 20          	mov    0x20(%rsp),%eax
    1be7:	69 c0 b1 33 00 00    	imul   $0x33b1,%eax,%eax
    1bed:	89 44 24 20          	mov    %eax,0x20(%rsp)
    1bf1:	8b 44 24 1c          	mov    0x1c(%rsp),%eax
    1bf5:	69 c0 26 e1 00 00    	imul   $0xe126,%eax,%eax
    1bfb:	89 44 24 1c          	mov    %eax,0x1c(%rsp)
    1bff:	8b 44 24 18          	mov    0x18(%rsp),%eax
    1c03:	69 c0 c6 ed 00 00    	imul   $0xedc6,%eax,%eax
    1c09:	89 44 24 18          	mov    %eax,0x18(%rsp)
    1c0d:	8b 44 24 20          	mov    0x20(%rsp),%eax
    1c11:	69 c0 1a 47 00 00    	imul   $0x471a,%eax,%eax
    1c17:	89 44 24 20          	mov    %eax,0x20(%rsp)
    1c1b:	8b 44 24 14          	mov    0x14(%rsp),%eax
    1c1f:	69 c0 cc 85 00 00    	imul   $0x85cc,%eax,%eax
    1c25:	89 44 24 14          	mov    %eax,0x14(%rsp)
    1c29:	8b 04 24             	mov    (%rsp),%eax
    1c2c:	69 c0 a7 1c 00 00    	imul   $0x1ca7,%eax,%eax
    1c32:	89 04 24             	mov    %eax,(%rsp)
    1c35:	8b 44 24 20          	mov    0x20(%rsp),%eax
    1c39:	69 c0 7b 23 00 00    	imul   $0x237b,%eax,%eax
    1c3f:	89 44 24 20          	mov    %eax,0x20(%rsp)
    1c43:	8b 44 24 14          	mov    0x14(%rsp),%eax
    1c47:	69 c0 d5 9f 00 00    	imul   $0x9fd5,%eax,%eax
    1c4d:	89 44 24 14          	mov    %eax,0x14(%rsp)
    1c51:	8b 44 24 14          	mov    0x14(%rsp),%eax
    1c55:	69 c0 35 16 00 00    	imul   $0x1635,%eax,%eax
    1c5b:	89 44 24 14          	mov    %eax,0x14(%rsp)
    1c5f:	8b 44 24 18          	mov    0x18(%rsp),%eax
    1c63:	69 c0 41 1d 00 00    	imul   $0x1d41,%eax,%eax
    1c69:	89 44 24 18          	mov    %eax,0x18(%rsp)
    1c6d:	8b 04 24             	mov    (%rsp),%eax
    1c70:	69 c0 74 ea 00 00    	imul   $0xea74,%eax,%eax
    1c76:	89 04 24             	mov    %eax,(%rsp)
    1c79:	8b 44 24 04          	mov    0x4(%rsp),%eax
    1c7d:	69 c0 7a 2e 00 00    	imul   $0x2e7a,%eax,%eax
    1c83:	89 44 24 04          	mov    %eax,0x4(%rsp)
    1c87:	8b 44 24 0c          	mov    0xc(%rsp),%eax
    1c8b:	69 c0 da b2 00 00    	imul   $0xb2da,%eax,%eax
    1c91:	89 44 24 0c          	mov    %eax,0xc(%rsp)
    1c95:	8b 44 24 1c          	mov    0x1c(%rsp),%eax
    1c99:	69 c0 52 fb 00 00    	imul   $0xfb52,%eax,%eax
    1c9f:	89 44 24 1c          	mov    %eax,0x1c(%rsp)
    1ca3:	8b 44 24 08          	mov    0x8(%rsp),%eax
    1ca7:	69 c0 19 3f 00 00    	imul   $0x3f19,%eax,%eax
    1cad:	89 44 24 08          	mov    %eax,0x8(%rsp)
    1cb1:	8b 44 24 1c          	mov    0x1c(%rsp),%eax
    1cb5:	69 c0 98 72 00 00    	imul   $0x7298,%eax,%eax
    1cbb:	89 44 24 1c          	mov    %eax,0x1c(%rsp)
    1cbf:	8b 04 24             	mov    (%rsp),%eax
    1cc2:	69 c0 e2 a2 00 00    	imul   $0xa2e2,%eax,%eax
    1cc8:	89 04 24             	mov    %eax,(%rsp)
    1ccb:	8b 04 24             	mov    (%rsp),%eax
    1cce:	69 c0 86 99 00 00    	imul   $0x9986,%eax,%eax
    1cd4:	89 04 24             	mov    %eax,(%rsp)
    1cd7:	8b 04 24             	mov    (%rsp),%eax
    1cda:	69 c0 21 ef 00 00    	imul   $0xef21,%eax,%eax
    1ce0:	89 04 24             	mov    %eax,(%rsp)
    1ce3:	8b 44 24 0c          	mov    0xc(%rsp),%eax
    1ce7:	69 c0 2b ba 00 00    	imul   $0xba2b,%eax,%eax
    1ced:	89 44 24 0c          	mov    %eax,0xc(%rsp)
    1cf1:	8b 44 24 20          	mov    0x20(%rsp),%eax
    1cf5:	69 c0 b4 27 00 00    	imul   $0x27b4,%eax,%eax
    1cfb:	89 44 24 20          	mov    %eax,0x20(%rsp)
    1cff:	8b 44 24 24          	mov    0x24(%rsp),%eax
    1d03:	69 c0 00 9f 00 00    	imul   $0x9f00,%eax,%eax
    1d09:	89 44 24 24          	mov    %eax,0x24(%rsp)
    1d0d:	8b 44 24 04          	mov    0x4(%rsp),%eax
    1d11:	69 c0 b2 c1 00 00    	imul   $0xc1b2,%eax,%eax
    1d17:	89 44 24 04          	mov    %eax,0x4(%rsp)
    1d1b:	8b 44 24 24          	mov    0x24(%rsp),%eax
    1d1f:	69 c0 b3 a9 00 00    	imul   $0xa9b3,%eax,%eax
    1d25:	89 44 24 24          	mov    %eax,0x24(%rsp)
    1d29:	8b 44 24 18          	mov    0x18(%rsp),%eax
    1d2d:	69 c0 a2 5f 00 00    	imul   $0x5fa2,%eax,%eax
    1d33:	89 44 24 18          	mov    %eax,0x18(%rsp)
    1d37:	8b 44 24 0c          	mov    0xc(%rsp),%eax
    1d3b:	69 c0 97 10 00 00    	imul   $0x1097,%eax,%eax
    1d41:	89 44 24 0c          	mov    %eax,0xc(%rsp)
    1d45:	8b 44 24 20          	mov    0x20(%rsp),%eax
    1d49:	69 c0 c4 1d 00 00    	imul   $0x1dc4,%eax,%eax
    1d4f:	89 44 24 20          	mov    %eax,0x20(%rsp)
    1d53:	8b 44 24 08          	mov    0x8(%rsp),%eax
    1d57:	69 c0 9e b5 00 00    	imul   $0xb59e,%eax,%eax
    1d5d:	89 44 24 08          	mov    %eax,0x8(%rsp)
    1d61:	8b 44 24 20          	mov    0x20(%rsp),%eax
    1d65:	69 c0 bb e3 00 00    	imul   $0xe3bb,%eax,%eax
    1d6b:	89 44 24 20          	mov    %eax,0x20(%rsp)
    1d6f:	8b 44 24 0c          	mov    0xc(%rsp),%eax
    1d73:	69 c0 34 14 00 00    	imul   $0x1434,%eax,%eax
    1d79:	89 44 24 0c          	mov    %eax,0xc(%rsp)
    1d7d:	8b 44 24 18          	mov    0x18(%rsp),%eax
    1d81:	69 c0 62 5d 00 00    	imul   $0x5d62,%eax,%eax
    1d87:	89 44 24 18          	mov    %eax,0x18(%rsp)
    1d8b:	8b 44 24 1c          	mov    0x1c(%rsp),%eax
    1d8f:	69 c0 a0 95 00 00    	imul   $0x95a0,%eax,%eax
    1d95:	89 44 24 1c          	mov    %eax,0x1c(%rsp)
    1d99:	8b 44 24 18          	mov    0x18(%rsp),%eax
    1d9d:	69 c0 8a da 00 00    	imul   $0xda8a,%eax,%eax
    1da3:	89 44 24 18          	mov    %eax,0x18(%rsp)
    1da7:	8b 44 24 0c          	mov    0xc(%rsp),%eax
    1dab:	69 c0 ed 90 00 00    	imul   $0x90ed,%eax,%eax
    1db1:	89 44 24 0c          	mov    %eax,0xc(%rsp)
    1db5:	8b 44 24 20          	mov    0x20(%rsp),%eax
    1db9:	69 c0 c6 0f 00 00    	imul   $0xfc6,%eax,%eax
    1dbf:	89 44 24 20          	mov    %eax,0x20(%rsp)
    1dc3:	8b 44 24 18          	mov    0x18(%rsp),%eax
    1dc7:	69 c0 99 3e 00 00    	imul   $0x3e99,%eax,%eax
    1dcd:	89 44 24 18          	mov    %eax,0x18(%rsp)
    1dd1:	8b 44 24 14          	mov    0x14(%rsp),%eax
    1dd5:	69 c0 ea 21 00 00    	imul   $0x21ea,%eax,%eax
    1ddb:	89 44 24 14          	mov    %eax,0x14(%rsp)
    1ddf:	8b 44 24 10          	mov    0x10(%rsp),%eax
    1de3:	69 c0 aa 82 00 00    	imul   $0x82aa,%eax,%eax
    1de9:	89 44 24 10          	mov    %eax,0x10(%rsp)
    1ded:	8b 44 24 14          	mov    0x14(%rsp),%eax
    1df1:	69 c0 6e 1c 00 00    	imul   $0x1c6e,%eax,%eax
    1df7:	89 44 24 14          	mov    %eax,0x14(%rsp)
    1dfb:	8b 44 24 10          	mov    0x10(%rsp),%eax
    1dff:	69 c0 84 bb 00 00    	imul   $0xbb84,%eax,%eax
    1e05:	89 44 24 10          	mov    %eax,0x10(%rsp)
    1e09:	8b 44 24 24          	mov    0x24(%rsp),%eax
    1e0d:	69 c0 51 f3 00 00    	imul   $0xf351,%eax,%eax
    1e13:	89 44 24 24          	mov    %eax,0x24(%rsp)
    1e17:	8b 44 24 08          	mov    0x8(%rsp),%eax
    1e1b:	69 c0 27 c6 00 00    	imul   $0xc627,%eax,%eax
    1e21:	89 44 24 08          	mov    %eax,0x8(%rsp)
    1e25:	8b 44 24 14          	mov    0x14(%rsp),%eax
    1e29:	69 c0 2d 0b 00 00    	imul   $0xb2d,%eax,%eax
    1e2f:	89 44 24 14          	mov    %eax,0x14(%rsp)
    1e33:	8b 44 24 0c          	mov    0xc(%rsp),%eax
    1e37:	69 c0 b4 e1 00 00    	imul   $0xe1b4,%eax,%eax
    1e3d:	89 44 24 0c          	mov    %eax,0xc(%rsp)
    1e41:	8b 44 24 20          	mov    0x20(%rsp),%eax
    1e45:	69 c0 b5 2c 00 00    	imul   $0x2cb5,%eax,%eax
    1e4b:	89 44 24 20          	mov    %eax,0x20(%rsp)
    1e4f:	8b 44 24 20          	mov    0x20(%rsp),%eax
    1e53:	69 c0 be 11 00 00    	imul   $0x11be,%eax,%eax
    1e59:	89 44 24 20          	mov    %eax,0x20(%rsp)
    1e5d:	8b 44 24 20          	mov    0x20(%rsp),%eax
    1e61:	69 c0 b4 7c 00 00    	imul   $0x7cb4,%eax,%eax
    1e67:	89 44 24 20          	mov    %eax,0x20(%rsp)
    1e6b:	8b 44 24 0c          	mov    0xc(%rsp),%eax
    1e6f:	69 c0 5d 8a 00 00    	imul   $0x8a5d,%eax,%eax
    1e75:	89 44 24 0c          	mov    %eax,0xc(%rsp)
    1e79:	8b 44 24 08          	mov    0x8(%rsp),%eax
    1e7d:	69 c0 84 d6 00 00    	imul   $0xd684,%eax,%eax
    1e83:	89 44 24 08          	mov    %eax,0x8(%rsp)
    1e87:	8b 44 24 08          	mov    0x8(%rsp),%eax
    1e8b:	69 c0 ea 20 00 00    	imul   $0x20ea,%eax,%eax
    1e91:	89 44 24 08          	mov    %eax,0x8(%rsp)
    1e95:	8b 44 24 24          	mov    0x24(%rsp),%eax
    1e99:	69 c0 63 66 00 00    	imul   $0x6663,%eax,%eax
    1e9f:	89 44 24 24          	mov    %eax,0x24(%rsp)
    1ea3:	8b 44 24 24          	mov    0x24(%rsp),%eax
    1ea7:	69 c0 c5 1d 00 00    	imul   $0x1dc5,%eax,%eax
    1ead:	89 44 24 24          	mov    %eax,0x24(%rsp)
    1eb1:	8b 44 24 24          	mov    0x24(%rsp),%eax
    1eb5:	69 c0 1c 3d 00 00    	imul   $0x3d1c,%eax,%eax
    1ebb:	89 44 24 24          	mov    %eax,0x24(%rsp)
    1ebf:	8b 44 24 08          	mov    0x8(%rsp),%eax
    1ec3:	69 c0 ea 6b 00 00    	imul   $0x6bea,%eax,%eax
    1ec9:	89 44 24 08          	mov    %eax,0x8(%rsp)
    1ecd:	8b 44 24 20          	mov    0x20(%rsp),%eax
    1ed1:	69 c0 cc cc 00 00    	imul   $0xcccc,%eax,%eax
    1ed7:	89 44 24 20          	mov    %eax,0x20(%rsp)
    1edb:	8b 44 24 24          	mov    0x24(%rsp),%eax
    1edf:	69 c0 9b d5 00 00    	imul   $0xd59b,%eax,%eax
    1ee5:	89 44 24 24          	mov    %eax,0x24(%rsp)
    1ee9:	8b 04 24             	mov    (%rsp),%eax
    1eec:	69 c0 89 f3 00 00    	imul   $0xf389,%eax,%eax
    1ef2:	89 04 24             	mov    %eax,(%rsp)
    1ef5:	8b 44 24 24          	mov    0x24(%rsp),%eax
    1ef9:	69 c0 33 d1 00 00    	imul   $0xd133,%eax,%eax
    1eff:	89 44 24 24          	mov    %eax,0x24(%rsp)
    1f03:	8b 04 24             	mov    (%rsp),%eax
    1f06:	69 c0 88 17 00 00    	imul   $0x1788,%eax,%eax
    1f0c:	89 04 24             	mov    %eax,(%rsp)
    1f0f:	b8 00 00 00 00       	mov    $0x0,%eax
    1f14:	ba 00 00 00 00       	mov    $0x0,%edx
    1f19:	83 f8 09             	cmp    $0x9,%eax
    1f1c:	77 0c                	ja     1f2a <scramble+0x5ae>
    1f1e:	89 c1                	mov    %eax,%ecx
    1f20:	8b 0c 8c             	mov    (%rsp,%rcx,4),%ecx
    1f23:	01 ca                	add    %ecx,%edx
    1f25:	83 c0 01             	add    $0x1,%eax
    1f28:	eb ef                	jmp    1f19 <scramble+0x59d>
    1f2a:	48 8b 44 24 28       	mov    0x28(%rsp),%rax
    1f2f:	64 48 33 04 25 28 00 	xor    %fs:0x28,%rax
    1f36:	00 00 
    1f38:	75 07                	jne    1f41 <scramble+0x5c5>
    1f3a:	89 d0                	mov    %edx,%eax
    1f3c:	48 83 c4 38          	add    $0x38,%rsp
    1f40:	c3                   	retq   
    1f41:	e8 7a f3 ff ff       	callq  12c0 <__stack_chk_fail@plt>

0000000000001f46 <getbuf>:
    1f46:	f3 0f 1e fa          	endbr64 
    1f4a:	48 83 ec 18          	sub    $0x18,%rsp
    1f4e:	48 89 e7             	mov    %rsp,%rdi
    1f51:	e8 86 04 00 00       	callq  23dc <Gets>
    1f56:	b8 01 00 00 00       	mov    $0x1,%eax
    1f5b:	48 83 c4 18          	add    $0x18,%rsp
    1f5f:	c3                   	retq   

0000000000001f60 <touch1>:
    1f60:	f3 0f 1e fa          	endbr64 
    1f64:	50                   	push   %rax
    1f65:	58                   	pop    %rax
    1f66:	48 83 ec 08          	sub    $0x8,%rsp
    1f6a:	c7 05 68 54 00 00 01 	movl   $0x1,0x5468(%rip)        # 73dc <vlevel>
    1f71:	00 00 00 
    1f74:	48 8d 3d ec 23 00 00 	lea    0x23ec(%rip),%rdi        # 4367 <_IO_stdin_used+0x367>
    1f7b:	e8 20 f3 ff ff       	callq  12a0 <puts@plt>
    1f80:	bf 01 00 00 00       	mov    $0x1,%edi
    1f85:	e8 c5 06 00 00       	callq  264f <validate>
    1f8a:	bf 00 00 00 00       	mov    $0x0,%edi
    1f8f:	e8 6c f4 ff ff       	callq  1400 <exit@plt>

0000000000001f94 <touch2>:
    1f94:	f3 0f 1e fa          	endbr64 
    1f98:	50                   	push   %rax
    1f99:	58                   	pop    %rax
    1f9a:	48 83 ec 08          	sub    $0x8,%rsp
    1f9e:	89 fa                	mov    %edi,%edx
    1fa0:	c7 05 32 54 00 00 02 	movl   $0x2,0x5432(%rip)        # 73dc <vlevel>
    1fa7:	00 00 00 
    1faa:	39 3d 34 54 00 00    	cmp    %edi,0x5434(%rip)        # 73e4 <cookie>
    1fb0:	74 2a                	je     1fdc <touch2+0x48>
    1fb2:	48 8d 35 ff 23 00 00 	lea    0x23ff(%rip),%rsi        # 43b8 <_IO_stdin_used+0x3b8>
    1fb9:	bf 01 00 00 00       	mov    $0x1,%edi
    1fbe:	b8 00 00 00 00       	mov    $0x0,%eax
    1fc3:	e8 e8 f3 ff ff       	callq  13b0 <__printf_chk@plt>
    1fc8:	bf 02 00 00 00       	mov    $0x2,%edi
    1fcd:	e8 51 07 00 00       	callq  2723 <fail>
    1fd2:	bf 00 00 00 00       	mov    $0x0,%edi
    1fd7:	e8 24 f4 ff ff       	callq  1400 <exit@plt>
    1fdc:	48 8d 35 ad 23 00 00 	lea    0x23ad(%rip),%rsi        # 4390 <_IO_stdin_used+0x390>
    1fe3:	bf 01 00 00 00       	mov    $0x1,%edi
    1fe8:	b8 00 00 00 00       	mov    $0x0,%eax
    1fed:	e8 be f3 ff ff       	callq  13b0 <__printf_chk@plt>
    1ff2:	bf 02 00 00 00       	mov    $0x2,%edi
    1ff7:	e8 53 06 00 00       	callq  264f <validate>
    1ffc:	eb d4                	jmp    1fd2 <touch2+0x3e>

0000000000001ffe <hexmatch>:
    1ffe:	f3 0f 1e fa          	endbr64 
    2002:	41 55                	push   %r13
    2004:	41 54                	push   %r12
    2006:	55                   	push   %rbp
    2007:	53                   	push   %rbx
    2008:	48 81 ec 88 00 00 00 	sub    $0x88,%rsp
    200f:	89 fd                	mov    %edi,%ebp
    2011:	48 89 f3             	mov    %rsi,%rbx
    2014:	41 bc 28 00 00 00    	mov    $0x28,%r12d
    201a:	64 49 8b 04 24       	mov    %fs:(%r12),%rax
    201f:	48 89 44 24 78       	mov    %rax,0x78(%rsp)
    2024:	31 c0                	xor    %eax,%eax
    2026:	e8 55 f3 ff ff       	callq  1380 <random@plt>
    202b:	48 89 c1             	mov    %rax,%rcx
    202e:	48 ba 0b d7 a3 70 3d 	movabs $0xa3d70a3d70a3d70b,%rdx
    2035:	0a d7 a3 
    2038:	48 f7 ea             	imul   %rdx
    203b:	48 01 ca             	add    %rcx,%rdx
    203e:	48 c1 fa 06          	sar    $0x6,%rdx
    2042:	48 89 c8             	mov    %rcx,%rax
    2045:	48 c1 f8 3f          	sar    $0x3f,%rax
    2049:	48 29 c2             	sub    %rax,%rdx
    204c:	48 8d 04 92          	lea    (%rdx,%rdx,4),%rax
    2050:	48 8d 04 80          	lea    (%rax,%rax,4),%rax
    2054:	48 c1 e0 02          	shl    $0x2,%rax
    2058:	48 29 c1             	sub    %rax,%rcx
    205b:	4c 8d 2c 0c          	lea    (%rsp,%rcx,1),%r13
    205f:	41 89 e8             	mov    %ebp,%r8d
    2062:	48 8d 0d 1b 23 00 00 	lea    0x231b(%rip),%rcx        # 4384 <_IO_stdin_used+0x384>
    2069:	48 c7 c2 ff ff ff ff 	mov    $0xffffffffffffffff,%rdx
    2070:	be 01 00 00 00       	mov    $0x1,%esi
    2075:	4c 89 ef             	mov    %r13,%rdi
    2078:	b8 00 00 00 00       	mov    $0x0,%eax
    207d:	e8 be f3 ff ff       	callq  1440 <__sprintf_chk@plt>
    2082:	ba 09 00 00 00       	mov    $0x9,%edx
    2087:	4c 89 ee             	mov    %r13,%rsi
    208a:	48 89 df             	mov    %rbx,%rdi
    208d:	e8 ee f1 ff ff       	callq  1280 <strncmp@plt>
    2092:	85 c0                	test   %eax,%eax
    2094:	0f 94 c0             	sete   %al
    2097:	48 8b 5c 24 78       	mov    0x78(%rsp),%rbx
    209c:	64 49 33 1c 24       	xor    %fs:(%r12),%rbx
    20a1:	75 11                	jne    20b4 <hexmatch+0xb6>
    20a3:	0f b6 c0             	movzbl %al,%eax
    20a6:	48 81 c4 88 00 00 00 	add    $0x88,%rsp
    20ad:	5b                   	pop    %rbx
    20ae:	5d                   	pop    %rbp
    20af:	41 5c                	pop    %r12
    20b1:	41 5d                	pop    %r13
    20b3:	c3                   	retq   
    20b4:	e8 07 f2 ff ff       	callq  12c0 <__stack_chk_fail@plt>

00000000000020b9 <touch3>:
    20b9:	f3 0f 1e fa          	endbr64 
    20bd:	53                   	push   %rbx
    20be:	48 89 fb             	mov    %rdi,%rbx
    20c1:	c7 05 11 53 00 00 03 	movl   $0x3,0x5311(%rip)        # 73dc <vlevel>
    20c8:	00 00 00 
    20cb:	48 89 fe             	mov    %rdi,%rsi
    20ce:	8b 3d 10 53 00 00    	mov    0x5310(%rip),%edi        # 73e4 <cookie>
    20d4:	e8 25 ff ff ff       	callq  1ffe <hexmatch>
    20d9:	85 c0                	test   %eax,%eax
    20db:	74 2d                	je     210a <touch3+0x51>
    20dd:	48 89 da             	mov    %rbx,%rdx
    20e0:	48 8d 35 f9 22 00 00 	lea    0x22f9(%rip),%rsi        # 43e0 <_IO_stdin_used+0x3e0>
    20e7:	bf 01 00 00 00       	mov    $0x1,%edi
    20ec:	b8 00 00 00 00       	mov    $0x0,%eax
    20f1:	e8 ba f2 ff ff       	callq  13b0 <__printf_chk@plt>
    20f6:	bf 03 00 00 00       	mov    $0x3,%edi
    20fb:	e8 4f 05 00 00       	callq  264f <validate>
    2100:	bf 00 00 00 00       	mov    $0x0,%edi
    2105:	e8 f6 f2 ff ff       	callq  1400 <exit@plt>
    210a:	48 89 da             	mov    %rbx,%rdx
    210d:	48 8d 35 f4 22 00 00 	lea    0x22f4(%rip),%rsi        # 4408 <_IO_stdin_used+0x408>
    2114:	bf 01 00 00 00       	mov    $0x1,%edi
    2119:	b8 00 00 00 00       	mov    $0x0,%eax
    211e:	e8 8d f2 ff ff       	callq  13b0 <__printf_chk@plt>
    2123:	bf 03 00 00 00       	mov    $0x3,%edi
    2128:	e8 f6 05 00 00       	callq  2723 <fail>
    212d:	eb d1                	jmp    2100 <touch3+0x47>

000000000000212f <test>:
    212f:	f3 0f 1e fa          	endbr64 
    2133:	48 83 ec 08          	sub    $0x8,%rsp
    2137:	b8 00 00 00 00       	mov    $0x0,%eax
    213c:	e8 05 fe ff ff       	callq  1f46 <getbuf>
    2141:	89 c2                	mov    %eax,%edx
    2143:	48 8d 35 e6 22 00 00 	lea    0x22e6(%rip),%rsi        # 4430 <_IO_stdin_used+0x430>
    214a:	bf 01 00 00 00       	mov    $0x1,%edi
    214f:	b8 00 00 00 00       	mov    $0x0,%eax
    2154:	e8 57 f2 ff ff       	callq  13b0 <__printf_chk@plt>
    2159:	48 83 c4 08          	add    $0x8,%rsp
    215d:	c3                   	retq   

000000000000215e <start_farm>:
    215e:	f3 0f 1e fa          	endbr64 
    2162:	b8 01 00 00 00       	mov    $0x1,%eax
    2167:	c3                   	retq   

0000000000002168 <addval_317>:
    2168:	f3 0f 1e fa          	endbr64 
    216c:	8d 87 31 58 90 90    	lea    -0x6f6fa7cf(%rdi),%eax
    2172:	c3                   	retq   

0000000000002173 <addval_307>:
    2173:	f3 0f 1e fa          	endbr64 
    2177:	8d 87 48 89 c7 91    	lea    -0x6e3876b8(%rdi),%eax
    217d:	c3                   	retq   

000000000000217e <setval_162>:
    217e:	f3 0f 1e fa          	endbr64 
    2182:	c7 07 48 89 c7 c7    	movl   $0xc7c78948,(%rdi)
    2188:	c3                   	retq   

0000000000002189 <getval_390>:
    2189:	f3 0f 1e fa          	endbr64 
    218d:	b8 48 89 c7 c3       	mov    $0xc3c78948,%eax
    2192:	c3                   	retq   

0000000000002193 <getval_332>:
    2193:	f3 0f 1e fa          	endbr64 
    2197:	b8 9f 08 50 90       	mov    $0x9050089f,%eax
    219c:	c3                   	retq   

000000000000219d <getval_471>:
    219d:	f3 0f 1e fa          	endbr64 
    21a1:	b8 e6 84 58 90       	mov    $0x905884e6,%eax
    21a6:	c3                   	retq   

00000000000021a7 <setval_381>:
    21a7:	f3 0f 1e fa          	endbr64 
    21ab:	c7 07 d0 58 94 90    	movl   $0x909458d0,(%rdi)
    21b1:	c3                   	retq   

00000000000021b2 <setval_384>:
    21b2:	f3 0f 1e fa          	endbr64 
    21b6:	c7 07 9c 48 89 c7    	movl   $0xc789489c,(%rdi)
    21bc:	c3                   	retq   

00000000000021bd <mid_farm>:
    21bd:	f3 0f 1e fa          	endbr64 
    21c1:	b8 01 00 00 00       	mov    $0x1,%eax
    21c6:	c3                   	retq   

00000000000021c7 <add_xy>:
    21c7:	f3 0f 1e fa          	endbr64 
    21cb:	48 8d 04 37          	lea    (%rdi,%rsi,1),%rax
    21cf:	c3                   	retq   

00000000000021d0 <addval_287>:
    21d0:	f3 0f 1e fa          	endbr64 
    21d4:	8d 87 09 c1 84 c9    	lea    -0x367b3ef7(%rdi),%eax
    21da:	c3                   	retq   

00000000000021db <addval_329>:
    21db:	f3 0f 1e fa          	endbr64 
    21df:	8d 87 b5 09 ca c3    	lea    -0x3c35f64b(%rdi),%eax
    21e5:	c3                   	retq   

00000000000021e6 <setval_302>:
    21e6:	f3 0f 1e fa          	endbr64 
    21ea:	c7 07 89 ca 90 90    	movl   $0x9090ca89,(%rdi)
    21f0:	c3                   	retq   

00000000000021f1 <getval_358>:
    21f1:	f3 0f 1e fa          	endbr64 
    21f5:	b8 8b ca 38 d2       	mov    $0xd238ca8b,%eax
    21fa:	c3                   	retq   

00000000000021fb <addval_234>:
    21fb:	f3 0f 1e fa          	endbr64 
    21ff:	8d 87 3d 48 89 e0    	lea    -0x1f76b7c3(%rdi),%eax
    2205:	c3                   	retq   

0000000000002206 <getval_355>:
    2206:	f3 0f 1e fa          	endbr64 
    220a:	b8 89 d6 60 d2       	mov    $0xd260d689,%eax
    220f:	c3                   	retq   

0000000000002210 <getval_469>:
    2210:	f3 0f 1e fa          	endbr64 
    2214:	b8 89 d6 28 c0       	mov    $0xc028d689,%eax
    2219:	c3                   	retq   

000000000000221a <addval_187>:
    221a:	f3 0f 1e fa          	endbr64 
    221e:	8d 87 89 d6 c4 c0    	lea    -0x3f3b2977(%rdi),%eax
    2224:	c3                   	retq   

0000000000002225 <setval_346>:
    2225:	f3 0f 1e fa          	endbr64 
    2229:	c7 07 89 ca 84 c9    	movl   $0xc984ca89,(%rdi)
    222f:	c3                   	retq   

0000000000002230 <addval_328>:
    2230:	f3 0f 1e fa          	endbr64 
    2234:	8d 87 48 88 e0 c3    	lea    -0x3c1f77b8(%rdi),%eax
    223a:	c3                   	retq   

000000000000223b <setval_131>:
    223b:	f3 0f 1e fa          	endbr64 
    223f:	c7 07 89 d6 78 d2    	movl   $0xd278d689,(%rdi)
    2245:	c3                   	retq   

0000000000002246 <setval_206>:
    2246:	f3 0f 1e fa          	endbr64 
    224a:	c7 07 81 c1 38 db    	movl   $0xdb38c181,(%rdi)
    2250:	c3                   	retq   

0000000000002251 <addval_255>:
    2251:	f3 0f 1e fa          	endbr64 
    2255:	8d 87 48 89 e0 92    	lea    -0x6d1f76b8(%rdi),%eax
    225b:	c3                   	retq   

000000000000225c <setval_314>:
    225c:	f3 0f 1e fa          	endbr64 
    2260:	c7 07 89 ca 48 db    	movl   $0xdb48ca89,(%rdi)
    2266:	c3                   	retq   

0000000000002267 <addval_239>:
    2267:	f3 0f 1e fa          	endbr64 
    226b:	8d 87 48 81 e0 c3    	lea    -0x3c1f7eb8(%rdi),%eax
    2271:	c3                   	retq   

0000000000002272 <addval_362>:
    2272:	f3 0f 1e fa          	endbr64 
    2276:	8d 87 48 89 e0 c2    	lea    -0x3d1f76b8(%rdi),%eax
    227c:	c3                   	retq   

000000000000227d <getval_216>:
    227d:	f3 0f 1e fa          	endbr64 
    2281:	b8 89 c1 38 db       	mov    $0xdb38c189,%eax
    2286:	c3                   	retq   

0000000000002287 <setval_473>:
    2287:	f3 0f 1e fa          	endbr64 
    228b:	c7 07 09 ca 90 90    	movl   $0x9090ca09,(%rdi)
    2291:	c3                   	retq   

0000000000002292 <getval_383>:
    2292:	f3 0f 1e fa          	endbr64 
    2296:	b8 48 89 e0 c3       	mov    $0xc3e08948,%eax
    229b:	c3                   	retq   

000000000000229c <getval_111>:
    229c:	f3 0f 1e fa          	endbr64 
    22a0:	b8 a9 d6 84 c9       	mov    $0xc984d6a9,%eax
    22a5:	c3                   	retq   

00000000000022a6 <addval_181>:
    22a6:	f3 0f 1e fa          	endbr64 
    22aa:	8d 87 1f 09 c1 90    	lea    -0x6f3ef6e1(%rdi),%eax
    22b0:	c3                   	retq   

00000000000022b1 <getval_264>:
    22b1:	f3 0f 1e fa          	endbr64 
    22b5:	b8 89 d6 48 d2       	mov    $0xd248d689,%eax
    22ba:	c3                   	retq   

00000000000022bb <addval_363>:
    22bb:	f3 0f 1e fa          	endbr64 
    22bf:	8d 87 48 89 e0 c2    	lea    -0x3d1f76b8(%rdi),%eax
    22c5:	c3                   	retq   

00000000000022c6 <setval_260>:
    22c6:	f3 0f 1e fa          	endbr64 
    22ca:	c7 07 a9 c1 38 db    	movl   $0xdb38c1a9,(%rdi)
    22d0:	c3                   	retq   

00000000000022d1 <getval_202>:
    22d1:	f3 0f 1e fa          	endbr64 
    22d5:	b8 48 89 e0 c2       	mov    $0xc2e08948,%eax
    22da:	c3                   	retq   

00000000000022db <getval_233>:
    22db:	f3 0f 1e fa          	endbr64 
    22df:	b8 89 ca 00 c0       	mov    $0xc000ca89,%eax
    22e4:	c3                   	retq   

00000000000022e5 <addval_129>:
    22e5:	f3 0f 1e fa          	endbr64 
    22e9:	8d 87 89 c1 30 c0    	lea    -0x3fcf3e77(%rdi),%eax
    22ef:	c3                   	retq   

00000000000022f0 <addval_418>:
    22f0:	f3 0f 1e fa          	endbr64 
    22f4:	8d 87 89 c1 c4 c0    	lea    -0x3f3b3e77(%rdi),%eax
    22fa:	c3                   	retq   

00000000000022fb <setval_374>:
    22fb:	f3 0f 1e fa          	endbr64 
    22ff:	c7 07 89 d6 84 db    	movl   $0xdb84d689,(%rdi)
    2305:	c3                   	retq   

0000000000002306 <getval_335>:
    2306:	f3 0f 1e fa          	endbr64 
    230a:	b8 89 ca 28 db       	mov    $0xdb28ca89,%eax
    230f:	c3                   	retq   

0000000000002310 <getval_306>:
    2310:	f3 0f 1e fa          	endbr64 
    2314:	b8 89 c1 84 d2       	mov    $0xd284c189,%eax
    2319:	c3                   	retq   

000000000000231a <setval_378>:
    231a:	f3 0f 1e fa          	endbr64 
    231e:	c7 07 89 d6 08 db    	movl   $0xdb08d689,(%rdi)
    2324:	c3                   	retq   

0000000000002325 <end_farm>:
    2325:	f3 0f 1e fa          	endbr64 
    2329:	b8 01 00 00 00       	mov    $0x1,%eax
    232e:	c3                   	retq   

000000000000232f <save_char>:
    232f:	8b 05 cf 5c 00 00    	mov    0x5ccf(%rip),%eax        # 8004 <gets_cnt>
    2335:	3d ff 03 00 00       	cmp    $0x3ff,%eax
    233a:	7f 4a                	jg     2386 <save_char+0x57>
    233c:	89 f9                	mov    %edi,%ecx
    233e:	c0 e9 04             	shr    $0x4,%cl
    2341:	8d 14 40             	lea    (%rax,%rax,2),%edx
    2344:	4c 8d 05 05 24 00 00 	lea    0x2405(%rip),%r8        # 4750 <trans_char>
    234b:	83 e1 0f             	and    $0xf,%ecx
    234e:	45 0f b6 0c 08       	movzbl (%r8,%rcx,1),%r9d
    2353:	48 8d 0d a6 50 00 00 	lea    0x50a6(%rip),%rcx        # 7400 <gets_buf>
    235a:	48 63 f2             	movslq %edx,%rsi
    235d:	44 88 0c 31          	mov    %r9b,(%rcx,%rsi,1)
    2361:	8d 72 01             	lea    0x1(%rdx),%esi
    2364:	83 e7 0f             	and    $0xf,%edi
    2367:	41 0f b6 3c 38       	movzbl (%r8,%rdi,1),%edi
    236c:	48 63 f6             	movslq %esi,%rsi
    236f:	40 88 3c 31          	mov    %dil,(%rcx,%rsi,1)
    2373:	83 c2 02             	add    $0x2,%edx
    2376:	48 63 d2             	movslq %edx,%rdx
    2379:	c6 04 11 20          	movb   $0x20,(%rcx,%rdx,1)
    237d:	83 c0 01             	add    $0x1,%eax
    2380:	89 05 7e 5c 00 00    	mov    %eax,0x5c7e(%rip)        # 8004 <gets_cnt>
    2386:	c3                   	retq   

0000000000002387 <save_term>:
    2387:	8b 05 77 5c 00 00    	mov    0x5c77(%rip),%eax        # 8004 <gets_cnt>
    238d:	8d 04 40             	lea    (%rax,%rax,2),%eax
    2390:	48 98                	cltq   
    2392:	48 8d 15 67 50 00 00 	lea    0x5067(%rip),%rdx        # 7400 <gets_buf>
    2399:	c6 04 02 00          	movb   $0x0,(%rdx,%rax,1)
    239d:	c3                   	retq   

000000000000239e <check_fail>:
    239e:	f3 0f 1e fa          	endbr64 
    23a2:	50                   	push   %rax
    23a3:	58                   	pop    %rax
    23a4:	48 83 ec 08          	sub    $0x8,%rsp
    23a8:	0f be 15 59 5c 00 00 	movsbl 0x5c59(%rip),%edx        # 8008 <target_prefix>
    23af:	4c 8d 05 4a 50 00 00 	lea    0x504a(%rip),%r8        # 7400 <gets_buf>
    23b6:	8b 0d 1c 50 00 00    	mov    0x501c(%rip),%ecx        # 73d8 <check_level>
    23bc:	48 8d 35 90 20 00 00 	lea    0x2090(%rip),%rsi        # 4453 <_IO_stdin_used+0x453>
    23c3:	bf 01 00 00 00       	mov    $0x1,%edi
    23c8:	b8 00 00 00 00       	mov    $0x0,%eax
    23cd:	e8 de ef ff ff       	callq  13b0 <__printf_chk@plt>
    23d2:	bf 01 00 00 00       	mov    $0x1,%edi
    23d7:	e8 24 f0 ff ff       	callq  1400 <exit@plt>

00000000000023dc <Gets>:
    23dc:	f3 0f 1e fa          	endbr64 
    23e0:	41 54                	push   %r12
    23e2:	55                   	push   %rbp
    23e3:	53                   	push   %rbx
    23e4:	49 89 fc             	mov    %rdi,%r12
    23e7:	c7 05 13 5c 00 00 00 	movl   $0x0,0x5c13(%rip)        # 8004 <gets_cnt>
    23ee:	00 00 00 
    23f1:	48 89 fb             	mov    %rdi,%rbx
    23f4:	48 8b 3d d5 4f 00 00 	mov    0x4fd5(%rip),%rdi        # 73d0 <infile>
    23fb:	e8 30 f0 ff ff       	callq  1430 <getc@plt>
    2400:	83 f8 ff             	cmp    $0xffffffff,%eax
    2403:	74 18                	je     241d <Gets+0x41>
    2405:	83 f8 0a             	cmp    $0xa,%eax
    2408:	74 13                	je     241d <Gets+0x41>
    240a:	48 8d 6b 01          	lea    0x1(%rbx),%rbp
    240e:	88 03                	mov    %al,(%rbx)
    2410:	0f b6 f8             	movzbl %al,%edi
    2413:	e8 17 ff ff ff       	callq  232f <save_char>
    2418:	48 89 eb             	mov    %rbp,%rbx
    241b:	eb d7                	jmp    23f4 <Gets+0x18>
    241d:	c6 03 00             	movb   $0x0,(%rbx)
    2420:	b8 00 00 00 00       	mov    $0x0,%eax
    2425:	e8 5d ff ff ff       	callq  2387 <save_term>
    242a:	4c 89 e0             	mov    %r12,%rax
    242d:	5b                   	pop    %rbx
    242e:	5d                   	pop    %rbp
    242f:	41 5c                	pop    %r12
    2431:	c3                   	retq   

0000000000002432 <notify_server>:
    2432:	f3 0f 1e fa          	endbr64 
    2436:	55                   	push   %rbp
    2437:	53                   	push   %rbx
    2438:	4c 8d 9c 24 00 c0 ff 	lea    -0x4000(%rsp),%r11
    243f:	ff 
    2440:	48 81 ec 00 10 00 00 	sub    $0x1000,%rsp
    2447:	48 83 0c 24 00       	orq    $0x0,(%rsp)
    244c:	4c 39 dc             	cmp    %r11,%rsp
    244f:	75 ef                	jne    2440 <notify_server+0xe>
    2451:	48 83 ec 18          	sub    $0x18,%rsp
    2455:	64 48 8b 04 25 28 00 	mov    %fs:0x28,%rax
    245c:	00 00 
    245e:	48 89 84 24 08 40 00 	mov    %rax,0x4008(%rsp)
    2465:	00 
    2466:	31 c0                	xor    %eax,%eax
    2468:	83 3d 79 4f 00 00 00 	cmpl   $0x0,0x4f79(%rip)        # 73e8 <is_checker>
    246f:	0f 85 26 01 00 00    	jne    259b <notify_server+0x169>
    2475:	89 fb                	mov    %edi,%ebx
    2477:	81 3d 83 5b 00 00 9c 	cmpl   $0x1f9c,0x5b83(%rip)        # 8004 <gets_cnt>
    247e:	1f 00 00 
    2481:	7f 18                	jg     249b <notify_server+0x69>
    2483:	0f be 05 7e 5b 00 00 	movsbl 0x5b7e(%rip),%eax        # 8008 <target_prefix>
    248a:	83 3d d7 4e 00 00 00 	cmpl   $0x0,0x4ed7(%rip)        # 7368 <notify>
    2491:	74 23                	je     24b6 <notify_server+0x84>
    2493:	8b 15 47 4f 00 00    	mov    0x4f47(%rip),%edx        # 73e0 <authkey>
    2499:	eb 20                	jmp    24bb <notify_server+0x89>
    249b:	48 8d 35 e6 20 00 00 	lea    0x20e6(%rip),%rsi        # 4588 <_IO_stdin_used+0x588>
    24a2:	bf 01 00 00 00       	mov    $0x1,%edi
    24a7:	e8 04 ef ff ff       	callq  13b0 <__printf_chk@plt>
    24ac:	bf 01 00 00 00       	mov    $0x1,%edi
    24b1:	e8 4a ef ff ff       	callq  1400 <exit@plt>
    24b6:	ba ff ff ff ff       	mov    $0xffffffff,%edx
    24bb:	85 db                	test   %ebx,%ebx
    24bd:	0f 84 98 00 00 00    	je     255b <notify_server+0x129>
    24c3:	48 8d 2d a4 1f 00 00 	lea    0x1fa4(%rip),%rbp        # 446e <_IO_stdin_used+0x46e>
    24ca:	48 89 e7             	mov    %rsp,%rdi
    24cd:	48 8d 0d 2c 4f 00 00 	lea    0x4f2c(%rip),%rcx        # 7400 <gets_buf>
    24d4:	51                   	push   %rcx
    24d5:	56                   	push   %rsi
    24d6:	50                   	push   %rax
    24d7:	52                   	push   %rdx
    24d8:	49 89 e9             	mov    %rbp,%r9
    24db:	44 8b 05 2e 4b 00 00 	mov    0x4b2e(%rip),%r8d        # 7010 <target_id>
    24e2:	48 8d 0d 8a 1f 00 00 	lea    0x1f8a(%rip),%rcx        # 4473 <_IO_stdin_used+0x473>
    24e9:	ba 00 20 00 00       	mov    $0x2000,%edx
    24ee:	be 01 00 00 00       	mov    $0x1,%esi
    24f3:	b8 00 00 00 00       	mov    $0x0,%eax
    24f8:	e8 43 ef ff ff       	callq  1440 <__sprintf_chk@plt>
    24fd:	48 83 c4 20          	add    $0x20,%rsp
    2501:	83 3d 60 4e 00 00 00 	cmpl   $0x0,0x4e60(%rip)        # 7368 <notify>
    2508:	0f 84 ae 00 00 00    	je     25bc <notify_server+0x18a>
    250e:	85 db                	test   %ebx,%ebx
    2510:	74 7d                	je     258f <notify_server+0x15d>
    2512:	48 89 e1             	mov    %rsp,%rcx
    2515:	4c 8d 8c 24 00 20 00 	lea    0x2000(%rsp),%r9
    251c:	00 
    251d:	41 b8 00 00 00 00    	mov    $0x0,%r8d
    2523:	48 8b 15 fe 4a 00 00 	mov    0x4afe(%rip),%rdx        # 7028 <lab>
    252a:	48 8b 35 ff 4a 00 00 	mov    0x4aff(%rip),%rsi        # 7030 <course>
    2531:	48 8b 3d e8 4a 00 00 	mov    0x4ae8(%rip),%rdi        # 7020 <user_id>
    2538:	e8 d9 11 00 00       	callq  3716 <driver_post>
    253d:	85 c0                	test   %eax,%eax
    253f:	78 26                	js     2567 <notify_server+0x135>
    2541:	48 8d 3d 70 20 00 00 	lea    0x2070(%rip),%rdi        # 45b8 <_IO_stdin_used+0x5b8>
    2548:	e8 53 ed ff ff       	callq  12a0 <puts@plt>
    254d:	48 8d 3d 47 1f 00 00 	lea    0x1f47(%rip),%rdi        # 449b <_IO_stdin_used+0x49b>
    2554:	e8 47 ed ff ff       	callq  12a0 <puts@plt>
    2559:	eb 40                	jmp    259b <notify_server+0x169>
    255b:	48 8d 2d 07 1f 00 00 	lea    0x1f07(%rip),%rbp        # 4469 <_IO_stdin_used+0x469>
    2562:	e9 63 ff ff ff       	jmpq   24ca <notify_server+0x98>
    2567:	48 8d 94 24 00 20 00 	lea    0x2000(%rsp),%rdx
    256e:	00 
    256f:	48 8d 35 19 1f 00 00 	lea    0x1f19(%rip),%rsi        # 448f <_IO_stdin_used+0x48f>
    2576:	bf 01 00 00 00       	mov    $0x1,%edi
    257b:	b8 00 00 00 00       	mov    $0x0,%eax
    2580:	e8 2b ee ff ff       	callq  13b0 <__printf_chk@plt>
    2585:	bf 01 00 00 00       	mov    $0x1,%edi
    258a:	e8 71 ee ff ff       	callq  1400 <exit@plt>
    258f:	48 8d 3d 0f 1f 00 00 	lea    0x1f0f(%rip),%rdi        # 44a5 <_IO_stdin_used+0x4a5>
    2596:	e8 05 ed ff ff       	callq  12a0 <puts@plt>
    259b:	48 8b 84 24 08 40 00 	mov    0x4008(%rsp),%rax
    25a2:	00 
    25a3:	64 48 33 04 25 28 00 	xor    %fs:0x28,%rax
    25aa:	00 00 
    25ac:	0f 85 98 00 00 00    	jne    264a <notify_server+0x218>
    25b2:	48 81 c4 18 40 00 00 	add    $0x4018,%rsp
    25b9:	5b                   	pop    %rbx
    25ba:	5d                   	pop    %rbp
    25bb:	c3                   	retq   
    25bc:	48 89 ea             	mov    %rbp,%rdx
    25bf:	48 8d 35 2a 20 00 00 	lea    0x202a(%rip),%rsi        # 45f0 <_IO_stdin_used+0x5f0>
    25c6:	bf 01 00 00 00       	mov    $0x1,%edi
    25cb:	b8 00 00 00 00       	mov    $0x0,%eax
    25d0:	e8 db ed ff ff       	callq  13b0 <__printf_chk@plt>
    25d5:	48 8b 15 44 4a 00 00 	mov    0x4a44(%rip),%rdx        # 7020 <user_id>
    25dc:	48 8d 35 c9 1e 00 00 	lea    0x1ec9(%rip),%rsi        # 44ac <_IO_stdin_used+0x4ac>
    25e3:	bf 01 00 00 00       	mov    $0x1,%edi
    25e8:	b8 00 00 00 00       	mov    $0x0,%eax
    25ed:	e8 be ed ff ff       	callq  13b0 <__printf_chk@plt>
    25f2:	48 8b 15 37 4a 00 00 	mov    0x4a37(%rip),%rdx        # 7030 <course>
    25f9:	48 8d 35 b9 1e 00 00 	lea    0x1eb9(%rip),%rsi        # 44b9 <_IO_stdin_used+0x4b9>
    2600:	bf 01 00 00 00       	mov    $0x1,%edi
    2605:	b8 00 00 00 00       	mov    $0x0,%eax
    260a:	e8 a1 ed ff ff       	callq  13b0 <__printf_chk@plt>
    260f:	48 8b 15 12 4a 00 00 	mov    0x4a12(%rip),%rdx        # 7028 <lab>
    2616:	48 8d 35 a8 1e 00 00 	lea    0x1ea8(%rip),%rsi        # 44c5 <_IO_stdin_used+0x4c5>
    261d:	bf 01 00 00 00       	mov    $0x1,%edi
    2622:	b8 00 00 00 00       	mov    $0x0,%eax
    2627:	e8 84 ed ff ff       	callq  13b0 <__printf_chk@plt>
    262c:	48 89 e2             	mov    %rsp,%rdx
    262f:	48 8d 35 98 1e 00 00 	lea    0x1e98(%rip),%rsi        # 44ce <_IO_stdin_used+0x4ce>
    2636:	bf 01 00 00 00       	mov    $0x1,%edi
    263b:	b8 00 00 00 00       	mov    $0x0,%eax
    2640:	e8 6b ed ff ff       	callq  13b0 <__printf_chk@plt>
    2645:	e9 51 ff ff ff       	jmpq   259b <notify_server+0x169>
    264a:	e8 71 ec ff ff       	callq  12c0 <__stack_chk_fail@plt>

000000000000264f <validate>:
    264f:	f3 0f 1e fa          	endbr64 
    2653:	53                   	push   %rbx
    2654:	89 fb                	mov    %edi,%ebx
    2656:	83 3d 8b 4d 00 00 00 	cmpl   $0x0,0x4d8b(%rip)        # 73e8 <is_checker>
    265d:	74 72                	je     26d1 <validate+0x82>
    265f:	39 3d 77 4d 00 00    	cmp    %edi,0x4d77(%rip)        # 73dc <vlevel>
    2665:	75 32                	jne    2699 <validate+0x4a>
    2667:	8b 15 6b 4d 00 00    	mov    0x4d6b(%rip),%edx        # 73d8 <check_level>
    266d:	39 fa                	cmp    %edi,%edx
    266f:	75 3e                	jne    26af <validate+0x60>
    2671:	0f be 15 90 59 00 00 	movsbl 0x5990(%rip),%edx        # 8008 <target_prefix>
    2678:	4c 8d 05 81 4d 00 00 	lea    0x4d81(%rip),%r8        # 7400 <gets_buf>
    267f:	89 f9                	mov    %edi,%ecx
    2681:	48 8d 35 70 1e 00 00 	lea    0x1e70(%rip),%rsi        # 44f8 <_IO_stdin_used+0x4f8>
    2688:	bf 01 00 00 00       	mov    $0x1,%edi
    268d:	b8 00 00 00 00       	mov    $0x0,%eax
    2692:	e8 19 ed ff ff       	callq  13b0 <__printf_chk@plt>
    2697:	5b                   	pop    %rbx
    2698:	c3                   	retq   
    2699:	48 8d 3d 3a 1e 00 00 	lea    0x1e3a(%rip),%rdi        # 44da <_IO_stdin_used+0x4da>
    26a0:	e8 fb eb ff ff       	callq  12a0 <puts@plt>
    26a5:	b8 00 00 00 00       	mov    $0x0,%eax
    26aa:	e8 ef fc ff ff       	callq  239e <check_fail>
    26af:	89 f9                	mov    %edi,%ecx
    26b1:	48 8d 35 60 1f 00 00 	lea    0x1f60(%rip),%rsi        # 4618 <_IO_stdin_used+0x618>
    26b8:	bf 01 00 00 00       	mov    $0x1,%edi
    26bd:	b8 00 00 00 00       	mov    $0x0,%eax
    26c2:	e8 e9 ec ff ff       	callq  13b0 <__printf_chk@plt>
    26c7:	b8 00 00 00 00       	mov    $0x0,%eax
    26cc:	e8 cd fc ff ff       	callq  239e <check_fail>
    26d1:	39 3d 05 4d 00 00    	cmp    %edi,0x4d05(%rip)        # 73dc <vlevel>
    26d7:	74 1a                	je     26f3 <validate+0xa4>
    26d9:	48 8d 3d fa 1d 00 00 	lea    0x1dfa(%rip),%rdi        # 44da <_IO_stdin_used+0x4da>
    26e0:	e8 bb eb ff ff       	callq  12a0 <puts@plt>
    26e5:	89 de                	mov    %ebx,%esi
    26e7:	bf 00 00 00 00       	mov    $0x0,%edi
    26ec:	e8 41 fd ff ff       	callq  2432 <notify_server>
    26f1:	eb a4                	jmp    2697 <validate+0x48>
    26f3:	0f be 0d 0e 59 00 00 	movsbl 0x590e(%rip),%ecx        # 8008 <target_prefix>
    26fa:	89 fa                	mov    %edi,%edx
    26fc:	48 8d 35 3d 1f 00 00 	lea    0x1f3d(%rip),%rsi        # 4640 <_IO_stdin_used+0x640>
    2703:	bf 01 00 00 00       	mov    $0x1,%edi
    2708:	b8 00 00 00 00       	mov    $0x0,%eax
    270d:	e8 9e ec ff ff       	callq  13b0 <__printf_chk@plt>
    2712:	89 de                	mov    %ebx,%esi
    2714:	bf 01 00 00 00       	mov    $0x1,%edi
    2719:	e8 14 fd ff ff       	callq  2432 <notify_server>
    271e:	e9 74 ff ff ff       	jmpq   2697 <validate+0x48>

0000000000002723 <fail>:
    2723:	f3 0f 1e fa          	endbr64 
    2727:	48 83 ec 08          	sub    $0x8,%rsp
    272b:	83 3d b6 4c 00 00 00 	cmpl   $0x0,0x4cb6(%rip)        # 73e8 <is_checker>
    2732:	75 11                	jne    2745 <fail+0x22>
    2734:	89 fe                	mov    %edi,%esi
    2736:	bf 00 00 00 00       	mov    $0x0,%edi
    273b:	e8 f2 fc ff ff       	callq  2432 <notify_server>
    2740:	48 83 c4 08          	add    $0x8,%rsp
    2744:	c3                   	retq   
    2745:	b8 00 00 00 00       	mov    $0x0,%eax
    274a:	e8 4f fc ff ff       	callq  239e <check_fail>

000000000000274f <bushandler>:
    274f:	f3 0f 1e fa          	endbr64 
    2753:	50                   	push   %rax
    2754:	58                   	pop    %rax
    2755:	48 83 ec 08          	sub    $0x8,%rsp
    2759:	83 3d 88 4c 00 00 00 	cmpl   $0x0,0x4c88(%rip)        # 73e8 <is_checker>
    2760:	74 16                	je     2778 <bushandler+0x29>
    2762:	48 8d 3d a4 1d 00 00 	lea    0x1da4(%rip),%rdi        # 450d <_IO_stdin_used+0x50d>
    2769:	e8 32 eb ff ff       	callq  12a0 <puts@plt>
    276e:	b8 00 00 00 00       	mov    $0x0,%eax
    2773:	e8 26 fc ff ff       	callq  239e <check_fail>
    2778:	48 8d 3d f9 1e 00 00 	lea    0x1ef9(%rip),%rdi        # 4678 <_IO_stdin_used+0x678>
    277f:	e8 1c eb ff ff       	callq  12a0 <puts@plt>
    2784:	48 8d 3d 8c 1d 00 00 	lea    0x1d8c(%rip),%rdi        # 4517 <_IO_stdin_used+0x517>
    278b:	e8 10 eb ff ff       	callq  12a0 <puts@plt>
    2790:	be 00 00 00 00       	mov    $0x0,%esi
    2795:	bf 00 00 00 00       	mov    $0x0,%edi
    279a:	e8 93 fc ff ff       	callq  2432 <notify_server>
    279f:	bf 01 00 00 00       	mov    $0x1,%edi
    27a4:	e8 57 ec ff ff       	callq  1400 <exit@plt>

00000000000027a9 <seghandler>:
    27a9:	f3 0f 1e fa          	endbr64 
    27ad:	50                   	push   %rax
    27ae:	58                   	pop    %rax
    27af:	48 83 ec 08          	sub    $0x8,%rsp
    27b3:	83 3d 2e 4c 00 00 00 	cmpl   $0x0,0x4c2e(%rip)        # 73e8 <is_checker>
    27ba:	74 16                	je     27d2 <seghandler+0x29>
    27bc:	48 8d 3d 6a 1d 00 00 	lea    0x1d6a(%rip),%rdi        # 452d <_IO_stdin_used+0x52d>
    27c3:	e8 d8 ea ff ff       	callq  12a0 <puts@plt>
    27c8:	b8 00 00 00 00       	mov    $0x0,%eax
    27cd:	e8 cc fb ff ff       	callq  239e <check_fail>
    27d2:	48 8d 3d bf 1e 00 00 	lea    0x1ebf(%rip),%rdi        # 4698 <_IO_stdin_used+0x698>
    27d9:	e8 c2 ea ff ff       	callq  12a0 <puts@plt>
    27de:	48 8d 3d 32 1d 00 00 	lea    0x1d32(%rip),%rdi        # 4517 <_IO_stdin_used+0x517>
    27e5:	e8 b6 ea ff ff       	callq  12a0 <puts@plt>
    27ea:	be 00 00 00 00       	mov    $0x0,%esi
    27ef:	bf 00 00 00 00       	mov    $0x0,%edi
    27f4:	e8 39 fc ff ff       	callq  2432 <notify_server>
    27f9:	bf 01 00 00 00       	mov    $0x1,%edi
    27fe:	e8 fd eb ff ff       	callq  1400 <exit@plt>

0000000000002803 <illegalhandler>:
    2803:	f3 0f 1e fa          	endbr64 
    2807:	50                   	push   %rax
    2808:	58                   	pop    %rax
    2809:	48 83 ec 08          	sub    $0x8,%rsp
    280d:	83 3d d4 4b 00 00 00 	cmpl   $0x0,0x4bd4(%rip)        # 73e8 <is_checker>
    2814:	74 16                	je     282c <illegalhandler+0x29>
    2816:	48 8d 3d 23 1d 00 00 	lea    0x1d23(%rip),%rdi        # 4540 <_IO_stdin_used+0x540>
    281d:	e8 7e ea ff ff       	callq  12a0 <puts@plt>
    2822:	b8 00 00 00 00       	mov    $0x0,%eax
    2827:	e8 72 fb ff ff       	callq  239e <check_fail>
    282c:	48 8d 3d 8d 1e 00 00 	lea    0x1e8d(%rip),%rdi        # 46c0 <_IO_stdin_used+0x6c0>
    2833:	e8 68 ea ff ff       	callq  12a0 <puts@plt>
    2838:	48 8d 3d d8 1c 00 00 	lea    0x1cd8(%rip),%rdi        # 4517 <_IO_stdin_used+0x517>
    283f:	e8 5c ea ff ff       	callq  12a0 <puts@plt>
    2844:	be 00 00 00 00       	mov    $0x0,%esi
    2849:	bf 00 00 00 00       	mov    $0x0,%edi
    284e:	e8 df fb ff ff       	callq  2432 <notify_server>
    2853:	bf 01 00 00 00       	mov    $0x1,%edi
    2858:	e8 a3 eb ff ff       	callq  1400 <exit@plt>

000000000000285d <sigalrmhandler>:
    285d:	f3 0f 1e fa          	endbr64 
    2861:	50                   	push   %rax
    2862:	58                   	pop    %rax
    2863:	48 83 ec 08          	sub    $0x8,%rsp
    2867:	83 3d 7a 4b 00 00 00 	cmpl   $0x0,0x4b7a(%rip)        # 73e8 <is_checker>
    286e:	74 16                	je     2886 <sigalrmhandler+0x29>
    2870:	48 8d 3d dd 1c 00 00 	lea    0x1cdd(%rip),%rdi        # 4554 <_IO_stdin_used+0x554>
    2877:	e8 24 ea ff ff       	callq  12a0 <puts@plt>
    287c:	b8 00 00 00 00       	mov    $0x0,%eax
    2881:	e8 18 fb ff ff       	callq  239e <check_fail>
    2886:	ba 05 00 00 00       	mov    $0x5,%edx
    288b:	48 8d 35 5e 1e 00 00 	lea    0x1e5e(%rip),%rsi        # 46f0 <_IO_stdin_used+0x6f0>
    2892:	bf 01 00 00 00       	mov    $0x1,%edi
    2897:	b8 00 00 00 00       	mov    $0x0,%eax
    289c:	e8 0f eb ff ff       	callq  13b0 <__printf_chk@plt>
    28a1:	be 00 00 00 00       	mov    $0x0,%esi
    28a6:	bf 00 00 00 00       	mov    $0x0,%edi
    28ab:	e8 82 fb ff ff       	callq  2432 <notify_server>
    28b0:	bf 01 00 00 00       	mov    $0x1,%edi
    28b5:	e8 46 eb ff ff       	callq  1400 <exit@plt>

00000000000028ba <launch>:
    28ba:	f3 0f 1e fa          	endbr64 
    28be:	55                   	push   %rbp
    28bf:	48 89 e5             	mov    %rsp,%rbp
    28c2:	48 83 ec 10          	sub    $0x10,%rsp
    28c6:	48 89 fa             	mov    %rdi,%rdx
    28c9:	64 48 8b 04 25 28 00 	mov    %fs:0x28,%rax
    28d0:	00 00 
    28d2:	48 89 45 f8          	mov    %rax,-0x8(%rbp)
    28d6:	31 c0                	xor    %eax,%eax
    28d8:	48 8d 47 17          	lea    0x17(%rdi),%rax
    28dc:	48 89 c1             	mov    %rax,%rcx
    28df:	48 83 e1 f0          	and    $0xfffffffffffffff0,%rcx
    28e3:	48 25 00 f0 ff ff    	and    $0xfffffffffffff000,%rax
    28e9:	48 89 e6             	mov    %rsp,%rsi
    28ec:	48 29 c6             	sub    %rax,%rsi
    28ef:	48 89 f0             	mov    %rsi,%rax
    28f2:	48 39 c4             	cmp    %rax,%rsp
    28f5:	74 12                	je     2909 <launch+0x4f>
    28f7:	48 81 ec 00 10 00 00 	sub    $0x1000,%rsp
    28fe:	48 83 8c 24 f8 0f 00 	orq    $0x0,0xff8(%rsp)
    2905:	00 00 
    2907:	eb e9                	jmp    28f2 <launch+0x38>
    2909:	48 89 c8             	mov    %rcx,%rax
    290c:	25 ff 0f 00 00       	and    $0xfff,%eax
    2911:	48 29 c4             	sub    %rax,%rsp
    2914:	48 85 c0             	test   %rax,%rax
    2917:	74 06                	je     291f <launch+0x65>
    2919:	48 83 4c 04 f8 00    	orq    $0x0,-0x8(%rsp,%rax,1)
    291f:	48 8d 7c 24 0f       	lea    0xf(%rsp),%rdi
    2924:	48 83 e7 f0          	and    $0xfffffffffffffff0,%rdi
    2928:	be f4 00 00 00       	mov    $0xf4,%esi
    292d:	e8 ae e9 ff ff       	callq  12e0 <memset@plt>
    2932:	48 8b 05 47 4a 00 00 	mov    0x4a47(%rip),%rax        # 7380 <stdin@@GLIBC_2.2.5>
    2939:	48 39 05 90 4a 00 00 	cmp    %rax,0x4a90(%rip)        # 73d0 <infile>
    2940:	74 3a                	je     297c <launch+0xc2>
    2942:	c7 05 90 4a 00 00 00 	movl   $0x0,0x4a90(%rip)        # 73dc <vlevel>
    2949:	00 00 00 
    294c:	b8 00 00 00 00       	mov    $0x0,%eax
    2951:	e8 d9 f7 ff ff       	callq  212f <test>
    2956:	83 3d 8b 4a 00 00 00 	cmpl   $0x0,0x4a8b(%rip)        # 73e8 <is_checker>
    295d:	75 35                	jne    2994 <launch+0xda>
    295f:	48 8d 3d 0e 1c 00 00 	lea    0x1c0e(%rip),%rdi        # 4574 <_IO_stdin_used+0x574>
    2966:	e8 35 e9 ff ff       	callq  12a0 <puts@plt>
    296b:	48 8b 45 f8          	mov    -0x8(%rbp),%rax
    296f:	64 48 33 04 25 28 00 	xor    %fs:0x28,%rax
    2976:	00 00 
    2978:	75 30                	jne    29aa <launch+0xf0>
    297a:	c9                   	leaveq 
    297b:	c3                   	retq   
    297c:	48 8d 35 d9 1b 00 00 	lea    0x1bd9(%rip),%rsi        # 455c <_IO_stdin_used+0x55c>
    2983:	bf 01 00 00 00       	mov    $0x1,%edi
    2988:	b8 00 00 00 00       	mov    $0x0,%eax
    298d:	e8 1e ea ff ff       	callq  13b0 <__printf_chk@plt>
    2992:	eb ae                	jmp    2942 <launch+0x88>
    2994:	48 8d 3d ce 1b 00 00 	lea    0x1bce(%rip),%rdi        # 4569 <_IO_stdin_used+0x569>
    299b:	e8 00 e9 ff ff       	callq  12a0 <puts@plt>
    29a0:	b8 00 00 00 00       	mov    $0x0,%eax
    29a5:	e8 f4 f9 ff ff       	callq  239e <check_fail>
    29aa:	e8 11 e9 ff ff       	callq  12c0 <__stack_chk_fail@plt>

00000000000029af <stable_launch>:
    29af:	f3 0f 1e fa          	endbr64 
    29b3:	53                   	push   %rbx
    29b4:	48 89 3d 0d 4a 00 00 	mov    %rdi,0x4a0d(%rip)        # 73c8 <global_offset>
    29bb:	41 b9 00 00 00 00    	mov    $0x0,%r9d
    29c1:	41 b8 00 00 00 00    	mov    $0x0,%r8d
    29c7:	b9 32 01 00 00       	mov    $0x132,%ecx
    29cc:	ba 07 00 00 00       	mov    $0x7,%edx
    29d1:	be 00 00 10 00       	mov    $0x100000,%esi
    29d6:	bf 00 60 58 55       	mov    $0x55586000,%edi
    29db:	e8 f0 e8 ff ff       	callq  12d0 <mmap@plt>
    29e0:	48 89 c3             	mov    %rax,%rbx
    29e3:	48 3d 00 60 58 55    	cmp    $0x55586000,%rax
    29e9:	75 43                	jne    2a2e <stable_launch+0x7f>
    29eb:	48 8d 90 f8 ff 0f 00 	lea    0xffff8(%rax),%rdx
    29f2:	48 89 15 17 56 00 00 	mov    %rdx,0x5617(%rip)        # 8010 <stack_top>
    29f9:	48 89 e0             	mov    %rsp,%rax
    29fc:	48 89 d4             	mov    %rdx,%rsp
    29ff:	48 89 c2             	mov    %rax,%rdx
    2a02:	48 89 15 b7 49 00 00 	mov    %rdx,0x49b7(%rip)        # 73c0 <global_save_stack>
    2a09:	48 8b 3d b8 49 00 00 	mov    0x49b8(%rip),%rdi        # 73c8 <global_offset>
    2a10:	e8 a5 fe ff ff       	callq  28ba <launch>
    2a15:	48 8b 05 a4 49 00 00 	mov    0x49a4(%rip),%rax        # 73c0 <global_save_stack>
    2a1c:	48 89 c4             	mov    %rax,%rsp
    2a1f:	be 00 00 10 00       	mov    $0x100000,%esi
    2a24:	48 89 df             	mov    %rbx,%rdi
    2a27:	e8 74 e9 ff ff       	callq  13a0 <munmap@plt>
    2a2c:	5b                   	pop    %rbx
    2a2d:	c3                   	retq   
    2a2e:	be 00 00 10 00       	mov    $0x100000,%esi
    2a33:	48 89 c7             	mov    %rax,%rdi
    2a36:	e8 65 e9 ff ff       	callq  13a0 <munmap@plt>
    2a3b:	b9 00 60 58 55       	mov    $0x55586000,%ecx
    2a40:	48 8d 15 e1 1c 00 00 	lea    0x1ce1(%rip),%rdx        # 4728 <_IO_stdin_used+0x728>
    2a47:	be 01 00 00 00       	mov    $0x1,%esi
    2a4c:	48 8b 3d 4d 49 00 00 	mov    0x494d(%rip),%rdi        # 73a0 <stderr@@GLIBC_2.2.5>
    2a53:	b8 00 00 00 00       	mov    $0x0,%eax
    2a58:	e8 c3 e9 ff ff       	callq  1420 <__fprintf_chk@plt>
    2a5d:	bf 01 00 00 00       	mov    $0x1,%edi
    2a62:	e8 99 e9 ff ff       	callq  1400 <exit@plt>

0000000000002a67 <rio_readinitb>:
    2a67:	89 37                	mov    %esi,(%rdi)
    2a69:	c7 47 04 00 00 00 00 	movl   $0x0,0x4(%rdi)
    2a70:	48 8d 47 10          	lea    0x10(%rdi),%rax
    2a74:	48 89 47 08          	mov    %rax,0x8(%rdi)
    2a78:	c3                   	retq   

0000000000002a79 <sigalrm_handler>:
    2a79:	f3 0f 1e fa          	endbr64 
    2a7d:	50                   	push   %rax
    2a7e:	58                   	pop    %rax
    2a7f:	48 83 ec 08          	sub    $0x8,%rsp
    2a83:	b9 00 00 00 00       	mov    $0x0,%ecx
    2a88:	48 8d 15 d1 1c 00 00 	lea    0x1cd1(%rip),%rdx        # 4760 <trans_char+0x10>
    2a8f:	be 01 00 00 00       	mov    $0x1,%esi
    2a94:	48 8b 3d 05 49 00 00 	mov    0x4905(%rip),%rdi        # 73a0 <stderr@@GLIBC_2.2.5>
    2a9b:	b8 00 00 00 00       	mov    $0x0,%eax
    2aa0:	e8 7b e9 ff ff       	callq  1420 <__fprintf_chk@plt>
    2aa5:	bf 01 00 00 00       	mov    $0x1,%edi
    2aaa:	e8 51 e9 ff ff       	callq  1400 <exit@plt>

0000000000002aaf <rio_writen>:
    2aaf:	41 55                	push   %r13
    2ab1:	41 54                	push   %r12
    2ab3:	55                   	push   %rbp
    2ab4:	53                   	push   %rbx
    2ab5:	48 83 ec 08          	sub    $0x8,%rsp
    2ab9:	41 89 fc             	mov    %edi,%r12d
    2abc:	48 89 f5             	mov    %rsi,%rbp
    2abf:	49 89 d5             	mov    %rdx,%r13
    2ac2:	48 89 d3             	mov    %rdx,%rbx
    2ac5:	eb 06                	jmp    2acd <rio_writen+0x1e>
    2ac7:	48 29 c3             	sub    %rax,%rbx
    2aca:	48 01 c5             	add    %rax,%rbp
    2acd:	48 85 db             	test   %rbx,%rbx
    2ad0:	74 24                	je     2af6 <rio_writen+0x47>
    2ad2:	48 89 da             	mov    %rbx,%rdx
    2ad5:	48 89 ee             	mov    %rbp,%rsi
    2ad8:	44 89 e7             	mov    %r12d,%edi
    2adb:	e8 d0 e7 ff ff       	callq  12b0 <write@plt>
    2ae0:	48 85 c0             	test   %rax,%rax
    2ae3:	7f e2                	jg     2ac7 <rio_writen+0x18>
    2ae5:	e8 76 e7 ff ff       	callq  1260 <__errno_location@plt>
    2aea:	83 38 04             	cmpl   $0x4,(%rax)
    2aed:	75 15                	jne    2b04 <rio_writen+0x55>
    2aef:	b8 00 00 00 00       	mov    $0x0,%eax
    2af4:	eb d1                	jmp    2ac7 <rio_writen+0x18>
    2af6:	4c 89 e8             	mov    %r13,%rax
    2af9:	48 83 c4 08          	add    $0x8,%rsp
    2afd:	5b                   	pop    %rbx
    2afe:	5d                   	pop    %rbp
    2aff:	41 5c                	pop    %r12
    2b01:	41 5d                	pop    %r13
    2b03:	c3                   	retq   
    2b04:	48 c7 c0 ff ff ff ff 	mov    $0xffffffffffffffff,%rax
    2b0b:	eb ec                	jmp    2af9 <rio_writen+0x4a>

0000000000002b0d <rio_read>:
    2b0d:	41 55                	push   %r13
    2b0f:	41 54                	push   %r12
    2b11:	55                   	push   %rbp
    2b12:	53                   	push   %rbx
    2b13:	48 83 ec 08          	sub    $0x8,%rsp
    2b17:	48 89 fb             	mov    %rdi,%rbx
    2b1a:	49 89 f5             	mov    %rsi,%r13
    2b1d:	49 89 d4             	mov    %rdx,%r12
    2b20:	eb 17                	jmp    2b39 <rio_read+0x2c>
    2b22:	e8 39 e7 ff ff       	callq  1260 <__errno_location@plt>
    2b27:	83 38 04             	cmpl   $0x4,(%rax)
    2b2a:	74 0d                	je     2b39 <rio_read+0x2c>
    2b2c:	48 c7 c0 ff ff ff ff 	mov    $0xffffffffffffffff,%rax
    2b33:	eb 54                	jmp    2b89 <rio_read+0x7c>
    2b35:	48 89 6b 08          	mov    %rbp,0x8(%rbx)
    2b39:	8b 6b 04             	mov    0x4(%rbx),%ebp
    2b3c:	85 ed                	test   %ebp,%ebp
    2b3e:	7f 23                	jg     2b63 <rio_read+0x56>
    2b40:	48 8d 6b 10          	lea    0x10(%rbx),%rbp
    2b44:	8b 3b                	mov    (%rbx),%edi
    2b46:	ba 00 20 00 00       	mov    $0x2000,%edx
    2b4b:	48 89 ee             	mov    %rbp,%rsi
    2b4e:	e8 bd e7 ff ff       	callq  1310 <read@plt>
    2b53:	89 43 04             	mov    %eax,0x4(%rbx)
    2b56:	85 c0                	test   %eax,%eax
    2b58:	78 c8                	js     2b22 <rio_read+0x15>
    2b5a:	75 d9                	jne    2b35 <rio_read+0x28>
    2b5c:	b8 00 00 00 00       	mov    $0x0,%eax
    2b61:	eb 26                	jmp    2b89 <rio_read+0x7c>
    2b63:	89 e8                	mov    %ebp,%eax
    2b65:	4c 39 e0             	cmp    %r12,%rax
    2b68:	72 03                	jb     2b6d <rio_read+0x60>
    2b6a:	44 89 e5             	mov    %r12d,%ebp
    2b6d:	4c 63 e5             	movslq %ebp,%r12
    2b70:	48 8b 73 08          	mov    0x8(%rbx),%rsi
    2b74:	4c 89 e2             	mov    %r12,%rdx
    2b77:	4c 89 ef             	mov    %r13,%rdi
    2b7a:	e8 e1 e7 ff ff       	callq  1360 <memcpy@plt>
    2b7f:	4c 01 63 08          	add    %r12,0x8(%rbx)
    2b83:	29 6b 04             	sub    %ebp,0x4(%rbx)
    2b86:	4c 89 e0             	mov    %r12,%rax
    2b89:	48 83 c4 08          	add    $0x8,%rsp
    2b8d:	5b                   	pop    %rbx
    2b8e:	5d                   	pop    %rbp
    2b8f:	41 5c                	pop    %r12
    2b91:	41 5d                	pop    %r13
    2b93:	c3                   	retq   

0000000000002b94 <rio_readlineb>:
    2b94:	41 55                	push   %r13
    2b96:	41 54                	push   %r12
    2b98:	55                   	push   %rbp
    2b99:	53                   	push   %rbx
    2b9a:	48 83 ec 18          	sub    $0x18,%rsp
    2b9e:	49 89 fd             	mov    %rdi,%r13
    2ba1:	48 89 f5             	mov    %rsi,%rbp
    2ba4:	49 89 d4             	mov    %rdx,%r12
    2ba7:	64 48 8b 04 25 28 00 	mov    %fs:0x28,%rax
    2bae:	00 00 
    2bb0:	48 89 44 24 08       	mov    %rax,0x8(%rsp)
    2bb5:	31 c0                	xor    %eax,%eax
    2bb7:	bb 01 00 00 00       	mov    $0x1,%ebx
    2bbc:	eb 18                	jmp    2bd6 <rio_readlineb+0x42>
    2bbe:	85 c0                	test   %eax,%eax
    2bc0:	75 65                	jne    2c27 <rio_readlineb+0x93>
    2bc2:	48 83 fb 01          	cmp    $0x1,%rbx
    2bc6:	75 3d                	jne    2c05 <rio_readlineb+0x71>
    2bc8:	b8 00 00 00 00       	mov    $0x0,%eax
    2bcd:	eb 3d                	jmp    2c0c <rio_readlineb+0x78>
    2bcf:	48 83 c3 01          	add    $0x1,%rbx
    2bd3:	48 89 d5             	mov    %rdx,%rbp
    2bd6:	4c 39 e3             	cmp    %r12,%rbx
    2bd9:	73 2a                	jae    2c05 <rio_readlineb+0x71>
    2bdb:	48 8d 74 24 07       	lea    0x7(%rsp),%rsi
    2be0:	ba 01 00 00 00       	mov    $0x1,%edx
    2be5:	4c 89 ef             	mov    %r13,%rdi
    2be8:	e8 20 ff ff ff       	callq  2b0d <rio_read>
    2bed:	83 f8 01             	cmp    $0x1,%eax
    2bf0:	75 cc                	jne    2bbe <rio_readlineb+0x2a>
    2bf2:	48 8d 55 01          	lea    0x1(%rbp),%rdx
    2bf6:	0f b6 44 24 07       	movzbl 0x7(%rsp),%eax
    2bfb:	88 45 00             	mov    %al,0x0(%rbp)
    2bfe:	3c 0a                	cmp    $0xa,%al
    2c00:	75 cd                	jne    2bcf <rio_readlineb+0x3b>
    2c02:	48 89 d5             	mov    %rdx,%rbp
    2c05:	c6 45 00 00          	movb   $0x0,0x0(%rbp)
    2c09:	48 89 d8             	mov    %rbx,%rax
    2c0c:	48 8b 4c 24 08       	mov    0x8(%rsp),%rcx
    2c11:	64 48 33 0c 25 28 00 	xor    %fs:0x28,%rcx
    2c18:	00 00 
    2c1a:	75 14                	jne    2c30 <rio_readlineb+0x9c>
    2c1c:	48 83 c4 18          	add    $0x18,%rsp
    2c20:	5b                   	pop    %rbx
    2c21:	5d                   	pop    %rbp
    2c22:	41 5c                	pop    %r12
    2c24:	41 5d                	pop    %r13
    2c26:	c3                   	retq   
    2c27:	48 c7 c0 ff ff ff ff 	mov    $0xffffffffffffffff,%rax
    2c2e:	eb dc                	jmp    2c0c <rio_readlineb+0x78>
    2c30:	e8 8b e6 ff ff       	callq  12c0 <__stack_chk_fail@plt>

0000000000002c35 <urlencode>:
    2c35:	41 54                	push   %r12
    2c37:	55                   	push   %rbp
    2c38:	53                   	push   %rbx
    2c39:	48 83 ec 10          	sub    $0x10,%rsp
    2c3d:	48 89 fb             	mov    %rdi,%rbx
    2c40:	48 89 f5             	mov    %rsi,%rbp
    2c43:	64 48 8b 04 25 28 00 	mov    %fs:0x28,%rax
    2c4a:	00 00 
    2c4c:	48 89 44 24 08       	mov    %rax,0x8(%rsp)
    2c51:	31 c0                	xor    %eax,%eax
    2c53:	48 c7 c1 ff ff ff ff 	mov    $0xffffffffffffffff,%rcx
    2c5a:	f2 ae                	repnz scas %es:(%rdi),%al
    2c5c:	48 f7 d1             	not    %rcx
    2c5f:	8d 41 ff             	lea    -0x1(%rcx),%eax
    2c62:	eb 0f                	jmp    2c73 <urlencode+0x3e>
    2c64:	44 88 45 00          	mov    %r8b,0x0(%rbp)
    2c68:	48 8d 6d 01          	lea    0x1(%rbp),%rbp
    2c6c:	48 83 c3 01          	add    $0x1,%rbx
    2c70:	44 89 e0             	mov    %r12d,%eax
    2c73:	44 8d 60 ff          	lea    -0x1(%rax),%r12d
    2c77:	85 c0                	test   %eax,%eax
    2c79:	0f 84 a8 00 00 00    	je     2d27 <urlencode+0xf2>
    2c7f:	44 0f b6 03          	movzbl (%rbx),%r8d
    2c83:	41 80 f8 2a          	cmp    $0x2a,%r8b
    2c87:	0f 94 c2             	sete   %dl
    2c8a:	41 80 f8 2d          	cmp    $0x2d,%r8b
    2c8e:	0f 94 c0             	sete   %al
    2c91:	08 c2                	or     %al,%dl
    2c93:	75 cf                	jne    2c64 <urlencode+0x2f>
    2c95:	41 80 f8 2e          	cmp    $0x2e,%r8b
    2c99:	74 c9                	je     2c64 <urlencode+0x2f>
    2c9b:	41 80 f8 5f          	cmp    $0x5f,%r8b
    2c9f:	74 c3                	je     2c64 <urlencode+0x2f>
    2ca1:	41 8d 40 d0          	lea    -0x30(%r8),%eax
    2ca5:	3c 09                	cmp    $0x9,%al
    2ca7:	76 bb                	jbe    2c64 <urlencode+0x2f>
    2ca9:	41 8d 40 bf          	lea    -0x41(%r8),%eax
    2cad:	3c 19                	cmp    $0x19,%al
    2caf:	76 b3                	jbe    2c64 <urlencode+0x2f>
    2cb1:	41 8d 40 9f          	lea    -0x61(%r8),%eax
    2cb5:	3c 19                	cmp    $0x19,%al
    2cb7:	76 ab                	jbe    2c64 <urlencode+0x2f>
    2cb9:	41 80 f8 20          	cmp    $0x20,%r8b
    2cbd:	74 56                	je     2d15 <urlencode+0xe0>
    2cbf:	41 8d 40 e0          	lea    -0x20(%r8),%eax
    2cc3:	3c 5f                	cmp    $0x5f,%al
    2cc5:	0f 96 c2             	setbe  %dl
    2cc8:	41 80 f8 09          	cmp    $0x9,%r8b
    2ccc:	0f 94 c0             	sete   %al
    2ccf:	08 c2                	or     %al,%dl
    2cd1:	74 4f                	je     2d22 <urlencode+0xed>
    2cd3:	48 89 e7             	mov    %rsp,%rdi
    2cd6:	45 0f b6 c0          	movzbl %r8b,%r8d
    2cda:	48 8d 0d 14 1b 00 00 	lea    0x1b14(%rip),%rcx        # 47f5 <trans_char+0xa5>
    2ce1:	ba 08 00 00 00       	mov    $0x8,%edx
    2ce6:	be 01 00 00 00       	mov    $0x1,%esi
    2ceb:	b8 00 00 00 00       	mov    $0x0,%eax
    2cf0:	e8 4b e7 ff ff       	callq  1440 <__sprintf_chk@plt>
    2cf5:	0f b6 04 24          	movzbl (%rsp),%eax
    2cf9:	88 45 00             	mov    %al,0x0(%rbp)
    2cfc:	0f b6 44 24 01       	movzbl 0x1(%rsp),%eax
    2d01:	88 45 01             	mov    %al,0x1(%rbp)
    2d04:	0f b6 44 24 02       	movzbl 0x2(%rsp),%eax
    2d09:	88 45 02             	mov    %al,0x2(%rbp)
    2d0c:	48 8d 6d 03          	lea    0x3(%rbp),%rbp
    2d10:	e9 57 ff ff ff       	jmpq   2c6c <urlencode+0x37>
    2d15:	c6 45 00 2b          	movb   $0x2b,0x0(%rbp)
    2d19:	48 8d 6d 01          	lea    0x1(%rbp),%rbp
    2d1d:	e9 4a ff ff ff       	jmpq   2c6c <urlencode+0x37>
    2d22:	b8 ff ff ff ff       	mov    $0xffffffff,%eax
    2d27:	48 8b 74 24 08       	mov    0x8(%rsp),%rsi
    2d2c:	64 48 33 34 25 28 00 	xor    %fs:0x28,%rsi
    2d33:	00 00 
    2d35:	75 09                	jne    2d40 <urlencode+0x10b>
    2d37:	48 83 c4 10          	add    $0x10,%rsp
    2d3b:	5b                   	pop    %rbx
    2d3c:	5d                   	pop    %rbp
    2d3d:	41 5c                	pop    %r12
    2d3f:	c3                   	retq   
    2d40:	e8 7b e5 ff ff       	callq  12c0 <__stack_chk_fail@plt>

0000000000002d45 <submitr>:
    2d45:	f3 0f 1e fa          	endbr64 
    2d49:	41 57                	push   %r15
    2d4b:	41 56                	push   %r14
    2d4d:	41 55                	push   %r13
    2d4f:	41 54                	push   %r12
    2d51:	55                   	push   %rbp
    2d52:	53                   	push   %rbx
    2d53:	4c 8d 9c 24 00 60 ff 	lea    -0xa000(%rsp),%r11
    2d5a:	ff 
    2d5b:	48 81 ec 00 10 00 00 	sub    $0x1000,%rsp
    2d62:	48 83 0c 24 00       	orq    $0x0,(%rsp)
    2d67:	4c 39 dc             	cmp    %r11,%rsp
    2d6a:	75 ef                	jne    2d5b <submitr+0x16>
    2d6c:	48 83 ec 68          	sub    $0x68,%rsp
    2d70:	49 89 fc             	mov    %rdi,%r12
    2d73:	89 74 24 14          	mov    %esi,0x14(%rsp)
    2d77:	49 89 d6             	mov    %rdx,%r14
    2d7a:	48 89 4c 24 08       	mov    %rcx,0x8(%rsp)
    2d7f:	4c 89 44 24 18       	mov    %r8,0x18(%rsp)
    2d84:	4d 89 cd             	mov    %r9,%r13
    2d87:	48 8b ac 24 a0 a0 00 	mov    0xa0a0(%rsp),%rbp
    2d8e:	00 
    2d8f:	64 48 8b 04 25 28 00 	mov    %fs:0x28,%rax
    2d96:	00 00 
    2d98:	48 89 84 24 58 a0 00 	mov    %rax,0xa058(%rsp)
    2d9f:	00 
    2da0:	31 c0                	xor    %eax,%eax
    2da2:	c7 44 24 2c 00 00 00 	movl   $0x0,0x2c(%rsp)
    2da9:	00 
    2daa:	ba 00 00 00 00       	mov    $0x0,%edx
    2daf:	be 01 00 00 00       	mov    $0x1,%esi
    2db4:	bf 02 00 00 00       	mov    $0x2,%edi
    2db9:	e8 92 e6 ff ff       	callq  1450 <socket@plt>
    2dbe:	85 c0                	test   %eax,%eax
    2dc0:	0f 88 a0 02 00 00    	js     3066 <submitr+0x321>
    2dc6:	89 c3                	mov    %eax,%ebx
    2dc8:	4c 89 e7             	mov    %r12,%rdi
    2dcb:	e8 60 e5 ff ff       	callq  1330 <gethostbyname@plt>
    2dd0:	48 85 c0             	test   %rax,%rax
    2dd3:	0f 84 d9 02 00 00    	je     30b2 <submitr+0x36d>
    2dd9:	4c 8d 7c 24 30       	lea    0x30(%rsp),%r15
    2dde:	48 c7 44 24 30 00 00 	movq   $0x0,0x30(%rsp)
    2de5:	00 00 
    2de7:	48 c7 44 24 38 00 00 	movq   $0x0,0x38(%rsp)
    2dee:	00 00 
    2df0:	66 c7 44 24 30 02 00 	movw   $0x2,0x30(%rsp)
    2df7:	48 63 50 14          	movslq 0x14(%rax),%rdx
    2dfb:	48 8b 40 18          	mov    0x18(%rax),%rax
    2dff:	48 8b 30             	mov    (%rax),%rsi
    2e02:	48 8d 7c 24 34       	lea    0x34(%rsp),%rdi
    2e07:	b9 0c 00 00 00       	mov    $0xc,%ecx
    2e0c:	e8 2f e5 ff ff       	callq  1340 <__memmove_chk@plt>
    2e11:	0f b7 74 24 14       	movzwl 0x14(%rsp),%esi
    2e16:	66 c1 c6 08          	rol    $0x8,%si
    2e1a:	66 89 74 24 32       	mov    %si,0x32(%rsp)
    2e1f:	ba 10 00 00 00       	mov    $0x10,%edx
    2e24:	4c 89 fe             	mov    %r15,%rsi
    2e27:	89 df                	mov    %ebx,%edi
    2e29:	e8 e2 e5 ff ff       	callq  1410 <connect@plt>
    2e2e:	85 c0                	test   %eax,%eax
    2e30:	0f 88 e4 02 00 00    	js     311a <submitr+0x3d5>
    2e36:	49 c7 c0 ff ff ff ff 	mov    $0xffffffffffffffff,%r8
    2e3d:	b8 00 00 00 00       	mov    $0x0,%eax
    2e42:	4c 89 c1             	mov    %r8,%rcx
    2e45:	4c 89 ef             	mov    %r13,%rdi
    2e48:	f2 ae                	repnz scas %es:(%rdi),%al
    2e4a:	48 89 ca             	mov    %rcx,%rdx
    2e4d:	48 f7 d2             	not    %rdx
    2e50:	4c 89 c1             	mov    %r8,%rcx
    2e53:	4c 89 f7             	mov    %r14,%rdi
    2e56:	f2 ae                	repnz scas %es:(%rdi),%al
    2e58:	48 f7 d1             	not    %rcx
    2e5b:	48 89 ce             	mov    %rcx,%rsi
    2e5e:	4c 89 c1             	mov    %r8,%rcx
    2e61:	48 8b 7c 24 08       	mov    0x8(%rsp),%rdi
    2e66:	f2 ae                	repnz scas %es:(%rdi),%al
    2e68:	48 f7 d1             	not    %rcx
    2e6b:	48 8d 74 0e fe       	lea    -0x2(%rsi,%rcx,1),%rsi
    2e70:	4c 89 c1             	mov    %r8,%rcx
    2e73:	48 8b 7c 24 18       	mov    0x18(%rsp),%rdi
    2e78:	f2 ae                	repnz scas %es:(%rdi),%al
    2e7a:	48 89 c8             	mov    %rcx,%rax
    2e7d:	48 f7 d0             	not    %rax
    2e80:	48 8d 4c 06 ff       	lea    -0x1(%rsi,%rax,1),%rcx
    2e85:	48 8d 44 52 fd       	lea    -0x3(%rdx,%rdx,2),%rax
    2e8a:	48 8d 84 01 80 00 00 	lea    0x80(%rcx,%rax,1),%rax
    2e91:	00 
    2e92:	48 3d 00 20 00 00    	cmp    $0x2000,%rax
    2e98:	0f 87 d6 02 00 00    	ja     3174 <submitr+0x42f>
    2e9e:	48 8d b4 24 50 40 00 	lea    0x4050(%rsp),%rsi
    2ea5:	00 
    2ea6:	b9 00 04 00 00       	mov    $0x400,%ecx
    2eab:	b8 00 00 00 00       	mov    $0x0,%eax
    2eb0:	48 89 f7             	mov    %rsi,%rdi
    2eb3:	f3 48 ab             	rep stos %rax,%es:(%rdi)
    2eb6:	4c 89 ef             	mov    %r13,%rdi
    2eb9:	e8 77 fd ff ff       	callq  2c35 <urlencode>
    2ebe:	85 c0                	test   %eax,%eax
    2ec0:	0f 88 21 03 00 00    	js     31e7 <submitr+0x4a2>
    2ec6:	4c 8d bc 24 50 20 00 	lea    0x2050(%rsp),%r15
    2ecd:	00 
    2ece:	41 54                	push   %r12
    2ed0:	48 8d 84 24 58 40 00 	lea    0x4058(%rsp),%rax
    2ed7:	00 
    2ed8:	50                   	push   %rax
    2ed9:	4d 89 f1             	mov    %r14,%r9
    2edc:	4c 8b 44 24 18       	mov    0x18(%rsp),%r8
    2ee1:	48 8d 0d a0 18 00 00 	lea    0x18a0(%rip),%rcx        # 4788 <trans_char+0x38>
    2ee8:	ba 00 20 00 00       	mov    $0x2000,%edx
    2eed:	be 01 00 00 00       	mov    $0x1,%esi
    2ef2:	4c 89 ff             	mov    %r15,%rdi
    2ef5:	b8 00 00 00 00       	mov    $0x0,%eax
    2efa:	e8 41 e5 ff ff       	callq  1440 <__sprintf_chk@plt>
    2eff:	48 c7 c1 ff ff ff ff 	mov    $0xffffffffffffffff,%rcx
    2f06:	b8 00 00 00 00       	mov    $0x0,%eax
    2f0b:	4c 89 ff             	mov    %r15,%rdi
    2f0e:	f2 ae                	repnz scas %es:(%rdi),%al
    2f10:	48 f7 d1             	not    %rcx
    2f13:	48 8d 51 ff          	lea    -0x1(%rcx),%rdx
    2f17:	4c 89 fe             	mov    %r15,%rsi
    2f1a:	89 df                	mov    %ebx,%edi
    2f1c:	e8 8e fb ff ff       	callq  2aaf <rio_writen>
    2f21:	48 83 c4 10          	add    $0x10,%rsp
    2f25:	48 85 c0             	test   %rax,%rax
    2f28:	0f 88 44 03 00 00    	js     3272 <submitr+0x52d>
    2f2e:	4c 8d 64 24 40       	lea    0x40(%rsp),%r12
    2f33:	89 de                	mov    %ebx,%esi
    2f35:	4c 89 e7             	mov    %r12,%rdi
    2f38:	e8 2a fb ff ff       	callq  2a67 <rio_readinitb>
    2f3d:	48 8d b4 24 50 20 00 	lea    0x2050(%rsp),%rsi
    2f44:	00 
    2f45:	ba 00 20 00 00       	mov    $0x2000,%edx
    2f4a:	4c 89 e7             	mov    %r12,%rdi
    2f4d:	e8 42 fc ff ff       	callq  2b94 <rio_readlineb>
    2f52:	48 85 c0             	test   %rax,%rax
    2f55:	0f 8e 86 03 00 00    	jle    32e1 <submitr+0x59c>
    2f5b:	48 8d 4c 24 2c       	lea    0x2c(%rsp),%rcx
    2f60:	48 8d 94 24 50 60 00 	lea    0x6050(%rsp),%rdx
    2f67:	00 
    2f68:	48 8d bc 24 50 20 00 	lea    0x2050(%rsp),%rdi
    2f6f:	00 
    2f70:	4c 8d 84 24 50 80 00 	lea    0x8050(%rsp),%r8
    2f77:	00 
    2f78:	48 8d 35 7d 18 00 00 	lea    0x187d(%rip),%rsi        # 47fc <trans_char+0xac>
    2f7f:	b8 00 00 00 00       	mov    $0x0,%eax
    2f84:	e8 07 e4 ff ff       	callq  1390 <__isoc99_sscanf@plt>
    2f89:	48 8d b4 24 50 20 00 	lea    0x2050(%rsp),%rsi
    2f90:	00 
    2f91:	b9 03 00 00 00       	mov    $0x3,%ecx
    2f96:	48 8d 3d 76 18 00 00 	lea    0x1876(%rip),%rdi        # 4813 <trans_char+0xc3>
    2f9d:	f3 a6                	repz cmpsb %es:(%rdi),%ds:(%rsi)
    2f9f:	0f 97 c0             	seta   %al
    2fa2:	1c 00                	sbb    $0x0,%al
    2fa4:	84 c0                	test   %al,%al
    2fa6:	0f 84 b3 03 00 00    	je     335f <submitr+0x61a>
    2fac:	48 8d b4 24 50 20 00 	lea    0x2050(%rsp),%rsi
    2fb3:	00 
    2fb4:	48 8d 7c 24 40       	lea    0x40(%rsp),%rdi
    2fb9:	ba 00 20 00 00       	mov    $0x2000,%edx
    2fbe:	e8 d1 fb ff ff       	callq  2b94 <rio_readlineb>
    2fc3:	48 85 c0             	test   %rax,%rax
    2fc6:	7f c1                	jg     2f89 <submitr+0x244>
    2fc8:	48 b8 45 72 72 6f 72 	movabs $0x43203a726f727245,%rax
    2fcf:	3a 20 43 
    2fd2:	48 ba 6c 69 65 6e 74 	movabs $0x6e7520746e65696c,%rdx
    2fd9:	20 75 6e 
    2fdc:	48 89 45 00          	mov    %rax,0x0(%rbp)
    2fe0:	48 89 55 08          	mov    %rdx,0x8(%rbp)
    2fe4:	48 b8 61 62 6c 65 20 	movabs $0x206f7420656c6261,%rax
    2feb:	74 6f 20 
    2fee:	48 ba 72 65 61 64 20 	movabs $0x6165682064616572,%rdx
    2ff5:	68 65 61 
    2ff8:	48 89 45 10          	mov    %rax,0x10(%rbp)
    2ffc:	48 89 55 18          	mov    %rdx,0x18(%rbp)
    3000:	48 b8 64 65 72 73 20 	movabs $0x6f72662073726564,%rax
    3007:	66 72 6f 
    300a:	48 ba 6d 20 74 68 65 	movabs $0x657220656874206d,%rdx
    3011:	20 72 65 
    3014:	48 89 45 20          	mov    %rax,0x20(%rbp)
    3018:	48 89 55 28          	mov    %rdx,0x28(%rbp)
    301c:	48 b8 73 75 6c 74 20 	movabs $0x72657320746c7573,%rax
    3023:	73 65 72 
    3026:	48 89 45 30          	mov    %rax,0x30(%rbp)
    302a:	c7 45 38 76 65 72 00 	movl   $0x726576,0x38(%rbp)
    3031:	89 df                	mov    %ebx,%edi
    3033:	e8 c8 e2 ff ff       	callq  1300 <close@plt>
    3038:	b8 ff ff ff ff       	mov    $0xffffffff,%eax
    303d:	48 8b 9c 24 58 a0 00 	mov    0xa058(%rsp),%rbx
    3044:	00 
    3045:	64 48 33 1c 25 28 00 	xor    %fs:0x28,%rbx
    304c:	00 00 
    304e:	0f 85 7e 04 00 00    	jne    34d2 <submitr+0x78d>
    3054:	48 81 c4 68 a0 00 00 	add    $0xa068,%rsp
    305b:	5b                   	pop    %rbx
    305c:	5d                   	pop    %rbp
    305d:	41 5c                	pop    %r12
    305f:	41 5d                	pop    %r13
    3061:	41 5e                	pop    %r14
    3063:	41 5f                	pop    %r15
    3065:	c3                   	retq   
    3066:	48 b8 45 72 72 6f 72 	movabs $0x43203a726f727245,%rax
    306d:	3a 20 43 
    3070:	48 ba 6c 69 65 6e 74 	movabs $0x6e7520746e65696c,%rdx
    3077:	20 75 6e 
    307a:	48 89 45 00          	mov    %rax,0x0(%rbp)
    307e:	48 89 55 08          	mov    %rdx,0x8(%rbp)
    3082:	48 b8 61 62 6c 65 20 	movabs $0x206f7420656c6261,%rax
    3089:	74 6f 20 
    308c:	48 ba 63 72 65 61 74 	movabs $0x7320657461657263,%rdx
    3093:	65 20 73 
    3096:	48 89 45 10          	mov    %rax,0x10(%rbp)
    309a:	48 89 55 18          	mov    %rdx,0x18(%rbp)
    309e:	c7 45 20 6f 63 6b 65 	movl   $0x656b636f,0x20(%rbp)
    30a5:	66 c7 45 24 74 00    	movw   $0x74,0x24(%rbp)
    30ab:	b8 ff ff ff ff       	mov    $0xffffffff,%eax
    30b0:	eb 8b                	jmp    303d <submitr+0x2f8>
    30b2:	48 b8 45 72 72 6f 72 	movabs $0x44203a726f727245,%rax
    30b9:	3a 20 44 
    30bc:	48 ba 4e 53 20 69 73 	movabs $0x6e7520736920534e,%rdx
    30c3:	20 75 6e 
    30c6:	48 89 45 00          	mov    %rax,0x0(%rbp)
    30ca:	48 89 55 08          	mov    %rdx,0x8(%rbp)
    30ce:	48 b8 61 62 6c 65 20 	movabs $0x206f7420656c6261,%rax
    30d5:	74 6f 20 
    30d8:	48 ba 72 65 73 6f 6c 	movabs $0x2065766c6f736572,%rdx
    30df:	76 65 20 
    30e2:	48 89 45 10          	mov    %rax,0x10(%rbp)
    30e6:	48 89 55 18          	mov    %rdx,0x18(%rbp)
    30ea:	48 b8 73 65 72 76 65 	movabs $0x6120726576726573,%rax
    30f1:	72 20 61 
    30f4:	48 89 45 20          	mov    %rax,0x20(%rbp)
    30f8:	c7 45 28 64 64 72 65 	movl   $0x65726464,0x28(%rbp)
    30ff:	66 c7 45 2c 73 73    	movw   $0x7373,0x2c(%rbp)
    3105:	c6 45 2e 00          	movb   $0x0,0x2e(%rbp)
    3109:	89 df                	mov    %ebx,%edi
    310b:	e8 f0 e1 ff ff       	callq  1300 <close@plt>
    3110:	b8 ff ff ff ff       	mov    $0xffffffff,%eax
    3115:	e9 23 ff ff ff       	jmpq   303d <submitr+0x2f8>
    311a:	48 b8 45 72 72 6f 72 	movabs $0x55203a726f727245,%rax
    3121:	3a 20 55 
    3124:	48 ba 6e 61 62 6c 65 	movabs $0x6f7420656c62616e,%rdx
    312b:	20 74 6f 
    312e:	48 89 45 00          	mov    %rax,0x0(%rbp)
    3132:	48 89 55 08          	mov    %rdx,0x8(%rbp)
    3136:	48 b8 20 63 6f 6e 6e 	movabs $0x7463656e6e6f6320,%rax
    313d:	65 63 74 
    3140:	48 ba 20 74 6f 20 74 	movabs $0x20656874206f7420,%rdx
    3147:	68 65 20 
    314a:	48 89 45 10          	mov    %rax,0x10(%rbp)
    314e:	48 89 55 18          	mov    %rdx,0x18(%rbp)
    3152:	c7 45 20 73 65 72 76 	movl   $0x76726573,0x20(%rbp)
    3159:	66 c7 45 24 65 72    	movw   $0x7265,0x24(%rbp)
    315f:	c6 45 26 00          	movb   $0x0,0x26(%rbp)
    3163:	89 df                	mov    %ebx,%edi
    3165:	e8 96 e1 ff ff       	callq  1300 <close@plt>
    316a:	b8 ff ff ff ff       	mov    $0xffffffff,%eax
    316f:	e9 c9 fe ff ff       	jmpq   303d <submitr+0x2f8>
    3174:	48 b8 45 72 72 6f 72 	movabs $0x52203a726f727245,%rax
    317b:	3a 20 52 
    317e:	48 ba 65 73 75 6c 74 	movabs $0x747320746c757365,%rdx
    3185:	20 73 74 
    3188:	48 89 45 00          	mov    %rax,0x0(%rbp)
    318c:	48 89 55 08          	mov    %rdx,0x8(%rbp)
    3190:	48 b8 72 69 6e 67 20 	movabs $0x6f6f7420676e6972,%rax
    3197:	74 6f 6f 
    319a:	48 ba 20 6c 61 72 67 	movabs $0x202e656772616c20,%rdx
    31a1:	65 2e 20 
    31a4:	48 89 45 10          	mov    %rax,0x10(%rbp)
    31a8:	48 89 55 18          	mov    %rdx,0x18(%rbp)
    31ac:	48 b8 49 6e 63 72 65 	movabs $0x6573616572636e49,%rax
    31b3:	61 73 65 
    31b6:	48 ba 20 53 55 42 4d 	movabs $0x5254494d42555320,%rdx
    31bd:	49 54 52 
    31c0:	48 89 45 20          	mov    %rax,0x20(%rbp)
    31c4:	48 89 55 28          	mov    %rdx,0x28(%rbp)
    31c8:	48 b8 5f 4d 41 58 42 	movabs $0x46554258414d5f,%rax
    31cf:	55 46 00 
    31d2:	48 89 45 30          	mov    %rax,0x30(%rbp)
    31d6:	89 df                	mov    %ebx,%edi
    31d8:	e8 23 e1 ff ff       	callq  1300 <close@plt>
    31dd:	b8 ff ff ff ff       	mov    $0xffffffff,%eax
    31e2:	e9 56 fe ff ff       	jmpq   303d <submitr+0x2f8>
    31e7:	48 b8 45 72 72 6f 72 	movabs $0x52203a726f727245,%rax
    31ee:	3a 20 52 
    31f1:	48 ba 65 73 75 6c 74 	movabs $0x747320746c757365,%rdx
    31f8:	20 73 74 
    31fb:	48 89 45 00          	mov    %rax,0x0(%rbp)
    31ff:	48 89 55 08          	mov    %rdx,0x8(%rbp)
    3203:	48 b8 72 69 6e 67 20 	movabs $0x6e6f6320676e6972,%rax
    320a:	63 6f 6e 
    320d:	48 ba 74 61 69 6e 73 	movabs $0x6e6120736e696174,%rdx
    3214:	20 61 6e 
    3217:	48 89 45 10          	mov    %rax,0x10(%rbp)
    321b:	48 89 55 18          	mov    %rdx,0x18(%rbp)
    321f:	48 b8 20 69 6c 6c 65 	movabs $0x6c6167656c6c6920,%rax
    3226:	67 61 6c 
    3229:	48 ba 20 6f 72 20 75 	movabs $0x72706e7520726f20,%rdx
    3230:	6e 70 72 
    3233:	48 89 45 20          	mov    %rax,0x20(%rbp)
    3237:	48 89 55 28          	mov    %rdx,0x28(%rbp)
    323b:	48 b8 69 6e 74 61 62 	movabs $0x20656c6261746e69,%rax
    3242:	6c 65 20 
    3245:	48 ba 63 68 61 72 61 	movabs $0x6574636172616863,%rdx
    324c:	63 74 65 
    324f:	48 89 45 30          	mov    %rax,0x30(%rbp)
    3253:	48 89 55 38          	mov    %rdx,0x38(%rbp)
    3257:	66 c7 45 40 72 2e    	movw   $0x2e72,0x40(%rbp)
    325d:	c6 45 42 00          	movb   $0x0,0x42(%rbp)
    3261:	89 df                	mov    %ebx,%edi
    3263:	e8 98 e0 ff ff       	callq  1300 <close@plt>
    3268:	b8 ff ff ff ff       	mov    $0xffffffff,%eax
    326d:	e9 cb fd ff ff       	jmpq   303d <submitr+0x2f8>
    3272:	48 b8 45 72 72 6f 72 	movabs $0x43203a726f727245,%rax
    3279:	3a 20 43 
    327c:	48 ba 6c 69 65 6e 74 	movabs $0x6e7520746e65696c,%rdx
    3283:	20 75 6e 
    3286:	48 89 45 00          	mov    %rax,0x0(%rbp)
    328a:	48 89 55 08          	mov    %rdx,0x8(%rbp)
    328e:	48 b8 61 62 6c 65 20 	movabs $0x206f7420656c6261,%rax
    3295:	74 6f 20 
    3298:	48 ba 77 72 69 74 65 	movabs $0x6f74206574697277,%rdx
    329f:	20 74 6f 
    32a2:	48 89 45 10          	mov    %rax,0x10(%rbp)
    32a6:	48 89 55 18          	mov    %rdx,0x18(%rbp)
    32aa:	48 b8 20 74 68 65 20 	movabs $0x7365722065687420,%rax
    32b1:	72 65 73 
    32b4:	48 ba 75 6c 74 20 73 	movabs $0x7672657320746c75,%rdx
    32bb:	65 72 76 
    32be:	48 89 45 20          	mov    %rax,0x20(%rbp)
    32c2:	48 89 55 28          	mov    %rdx,0x28(%rbp)
    32c6:	66 c7 45 30 65 72    	movw   $0x7265,0x30(%rbp)
    32cc:	c6 45 32 00          	movb   $0x0,0x32(%rbp)
    32d0:	89 df                	mov    %ebx,%edi
    32d2:	e8 29 e0 ff ff       	callq  1300 <close@plt>
    32d7:	b8 ff ff ff ff       	mov    $0xffffffff,%eax
    32dc:	e9 5c fd ff ff       	jmpq   303d <submitr+0x2f8>
    32e1:	48 b8 45 72 72 6f 72 	movabs $0x43203a726f727245,%rax
    32e8:	3a 20 43 
    32eb:	48 ba 6c 69 65 6e 74 	movabs $0x6e7520746e65696c,%rdx
    32f2:	20 75 6e 
    32f5:	48 89 45 00          	mov    %rax,0x0(%rbp)
    32f9:	48 89 55 08          	mov    %rdx,0x8(%rbp)
    32fd:	48 b8 61 62 6c 65 20 	movabs $0x206f7420656c6261,%rax
    3304:	74 6f 20 
    3307:	48 ba 72 65 61 64 20 	movabs $0x7269662064616572,%rdx
    330e:	66 69 72 
    3311:	48 89 45 10          	mov    %rax,0x10(%rbp)
    3315:	48 89 55 18          	mov    %rdx,0x18(%rbp)
    3319:	48 b8 73 74 20 68 65 	movabs $0x6564616568207473,%rax
    3320:	61 64 65 
    3323:	48 ba 72 20 66 72 6f 	movabs $0x72206d6f72662072,%rdx
    332a:	6d 20 72 
    332d:	48 89 45 20          	mov    %rax,0x20(%rbp)
    3331:	48 89 55 28          	mov    %rdx,0x28(%rbp)
    3335:	48 b8 65 73 75 6c 74 	movabs $0x657320746c757365,%rax
    333c:	20 73 65 
    333f:	48 89 45 30          	mov    %rax,0x30(%rbp)
    3343:	c7 45 38 72 76 65 72 	movl   $0x72657672,0x38(%rbp)
    334a:	c6 45 3c 00          	movb   $0x0,0x3c(%rbp)
    334e:	89 df                	mov    %ebx,%edi
    3350:	e8 ab df ff ff       	callq  1300 <close@plt>
    3355:	b8 ff ff ff ff       	mov    $0xffffffff,%eax
    335a:	e9 de fc ff ff       	jmpq   303d <submitr+0x2f8>
    335f:	48 8d b4 24 50 20 00 	lea    0x2050(%rsp),%rsi
    3366:	00 
    3367:	48 8d 7c 24 40       	lea    0x40(%rsp),%rdi
    336c:	ba 00 20 00 00       	mov    $0x2000,%edx
    3371:	e8 1e f8 ff ff       	callq  2b94 <rio_readlineb>
    3376:	48 85 c0             	test   %rax,%rax
    3379:	0f 8e 96 00 00 00    	jle    3415 <submitr+0x6d0>
    337f:	44 8b 44 24 2c       	mov    0x2c(%rsp),%r8d
    3384:	41 81 f8 c8 00 00 00 	cmp    $0xc8,%r8d
    338b:	0f 85 08 01 00 00    	jne    3499 <submitr+0x754>
    3391:	48 8d b4 24 50 20 00 	lea    0x2050(%rsp),%rsi
    3398:	00 
    3399:	48 89 ef             	mov    %rbp,%rdi
    339c:	e8 ef de ff ff       	callq  1290 <strcpy@plt>
    33a1:	89 df                	mov    %ebx,%edi
    33a3:	e8 58 df ff ff       	callq  1300 <close@plt>
    33a8:	b9 04 00 00 00       	mov    $0x4,%ecx
    33ad:	48 8d 3d 59 14 00 00 	lea    0x1459(%rip),%rdi        # 480d <trans_char+0xbd>
    33b4:	48 89 ee             	mov    %rbp,%rsi
    33b7:	f3 a6                	repz cmpsb %es:(%rdi),%ds:(%rsi)
    33b9:	0f 97 c0             	seta   %al
    33bc:	1c 00                	sbb    $0x0,%al
    33be:	0f be c0             	movsbl %al,%eax
    33c1:	85 c0                	test   %eax,%eax
    33c3:	0f 84 74 fc ff ff    	je     303d <submitr+0x2f8>
    33c9:	b9 05 00 00 00       	mov    $0x5,%ecx
    33ce:	48 8d 3d 3c 14 00 00 	lea    0x143c(%rip),%rdi        # 4811 <trans_char+0xc1>
    33d5:	48 89 ee             	mov    %rbp,%rsi
    33d8:	f3 a6                	repz cmpsb %es:(%rdi),%ds:(%rsi)
    33da:	0f 97 c0             	seta   %al
    33dd:	1c 00                	sbb    $0x0,%al
    33df:	0f be c0             	movsbl %al,%eax
    33e2:	85 c0                	test   %eax,%eax
    33e4:	0f 84 53 fc ff ff    	je     303d <submitr+0x2f8>
    33ea:	b9 03 00 00 00       	mov    $0x3,%ecx
    33ef:	48 8d 3d 20 14 00 00 	lea    0x1420(%rip),%rdi        # 4816 <trans_char+0xc6>
    33f6:	48 89 ee             	mov    %rbp,%rsi
    33f9:	f3 a6                	repz cmpsb %es:(%rdi),%ds:(%rsi)
    33fb:	0f 97 c0             	seta   %al
    33fe:	1c 00                	sbb    $0x0,%al
    3400:	0f be c0             	movsbl %al,%eax
    3403:	85 c0                	test   %eax,%eax
    3405:	0f 84 32 fc ff ff    	je     303d <submitr+0x2f8>
    340b:	b8 ff ff ff ff       	mov    $0xffffffff,%eax
    3410:	e9 28 fc ff ff       	jmpq   303d <submitr+0x2f8>
    3415:	48 b8 45 72 72 6f 72 	movabs $0x43203a726f727245,%rax
    341c:	3a 20 43 
    341f:	48 ba 6c 69 65 6e 74 	movabs $0x6e7520746e65696c,%rdx
    3426:	20 75 6e 
    3429:	48 89 45 00          	mov    %rax,0x0(%rbp)
    342d:	48 89 55 08          	mov    %rdx,0x8(%rbp)
    3431:	48 b8 61 62 6c 65 20 	movabs $0x206f7420656c6261,%rax
    3438:	74 6f 20 
    343b:	48 ba 72 65 61 64 20 	movabs $0x6174732064616572,%rdx
    3442:	73 74 61 
    3445:	48 89 45 10          	mov    %rax,0x10(%rbp)
    3449:	48 89 55 18          	mov    %rdx,0x18(%rbp)
    344d:	48 b8 74 75 73 20 6d 	movabs $0x7373656d20737574,%rax
    3454:	65 73 73 
    3457:	48 ba 61 67 65 20 66 	movabs $0x6d6f726620656761,%rdx
    345e:	72 6f 6d 
    3461:	48 89 45 20          	mov    %rax,0x20(%rbp)
    3465:	48 89 55 28          	mov    %rdx,0x28(%rbp)
    3469:	48 b8 20 72 65 73 75 	movabs $0x20746c7573657220,%rax
    3470:	6c 74 20 
    3473:	48 89 45 30          	mov    %rax,0x30(%rbp)
    3477:	c7 45 38 73 65 72 76 	movl   $0x76726573,0x38(%rbp)
    347e:	66 c7 45 3c 65 72    	movw   $0x7265,0x3c(%rbp)
    3484:	c6 45 3e 00          	movb   $0x0,0x3e(%rbp)
    3488:	89 df                	mov    %ebx,%edi
    348a:	e8 71 de ff ff       	callq  1300 <close@plt>
    348f:	b8 ff ff ff ff       	mov    $0xffffffff,%eax
    3494:	e9 a4 fb ff ff       	jmpq   303d <submitr+0x2f8>
    3499:	4c 8d 8c 24 50 80 00 	lea    0x8050(%rsp),%r9
    34a0:	00 
    34a1:	48 8d 0d 20 13 00 00 	lea    0x1320(%rip),%rcx        # 47c8 <trans_char+0x78>
    34a8:	48 c7 c2 ff ff ff ff 	mov    $0xffffffffffffffff,%rdx
    34af:	be 01 00 00 00       	mov    $0x1,%esi
    34b4:	48 89 ef             	mov    %rbp,%rdi
    34b7:	b8 00 00 00 00       	mov    $0x0,%eax
    34bc:	e8 7f df ff ff       	callq  1440 <__sprintf_chk@plt>
    34c1:	89 df                	mov    %ebx,%edi
    34c3:	e8 38 de ff ff       	callq  1300 <close@plt>
    34c8:	b8 ff ff ff ff       	mov    $0xffffffff,%eax
    34cd:	e9 6b fb ff ff       	jmpq   303d <submitr+0x2f8>
    34d2:	e8 e9 dd ff ff       	callq  12c0 <__stack_chk_fail@plt>

00000000000034d7 <init_timeout>:
    34d7:	f3 0f 1e fa          	endbr64 
    34db:	85 ff                	test   %edi,%edi
    34dd:	74 26                	je     3505 <init_timeout+0x2e>
    34df:	53                   	push   %rbx
    34e0:	89 fb                	mov    %edi,%ebx
    34e2:	78 1a                	js     34fe <init_timeout+0x27>
    34e4:	48 8d 35 8e f5 ff ff 	lea    -0xa72(%rip),%rsi        # 2a79 <sigalrm_handler>
    34eb:	bf 0e 00 00 00       	mov    $0xe,%edi
    34f0:	e8 2b de ff ff       	callq  1320 <signal@plt>
    34f5:	89 df                	mov    %ebx,%edi
    34f7:	e8 f4 dd ff ff       	callq  12f0 <alarm@plt>
    34fc:	5b                   	pop    %rbx
    34fd:	c3                   	retq   
    34fe:	bb 00 00 00 00       	mov    $0x0,%ebx
    3503:	eb df                	jmp    34e4 <init_timeout+0xd>
    3505:	c3                   	retq   

0000000000003506 <init_driver>:
    3506:	f3 0f 1e fa          	endbr64 
    350a:	41 54                	push   %r12
    350c:	55                   	push   %rbp
    350d:	53                   	push   %rbx
    350e:	48 83 ec 20          	sub    $0x20,%rsp
    3512:	48 89 fd             	mov    %rdi,%rbp
    3515:	64 48 8b 04 25 28 00 	mov    %fs:0x28,%rax
    351c:	00 00 
    351e:	48 89 44 24 18       	mov    %rax,0x18(%rsp)
    3523:	31 c0                	xor    %eax,%eax
    3525:	be 01 00 00 00       	mov    $0x1,%esi
    352a:	bf 0d 00 00 00       	mov    $0xd,%edi
    352f:	e8 ec dd ff ff       	callq  1320 <signal@plt>
    3534:	be 01 00 00 00       	mov    $0x1,%esi
    3539:	bf 1d 00 00 00       	mov    $0x1d,%edi
    353e:	e8 dd dd ff ff       	callq  1320 <signal@plt>
    3543:	be 01 00 00 00       	mov    $0x1,%esi
    3548:	bf 1d 00 00 00       	mov    $0x1d,%edi
    354d:	e8 ce dd ff ff       	callq  1320 <signal@plt>
    3552:	ba 00 00 00 00       	mov    $0x0,%edx
    3557:	be 01 00 00 00       	mov    $0x1,%esi
    355c:	bf 02 00 00 00       	mov    $0x2,%edi
    3561:	e8 ea de ff ff       	callq  1450 <socket@plt>
    3566:	85 c0                	test   %eax,%eax
    3568:	0f 88 9c 00 00 00    	js     360a <init_driver+0x104>
    356e:	89 c3                	mov    %eax,%ebx
    3570:	48 8d 3d 98 0d 00 00 	lea    0xd98(%rip),%rdi        # 430f <_IO_stdin_used+0x30f>
    3577:	e8 b4 dd ff ff       	callq  1330 <gethostbyname@plt>
    357c:	48 85 c0             	test   %rax,%rax
    357f:	0f 84 d1 00 00 00    	je     3656 <init_driver+0x150>
    3585:	49 89 e4             	mov    %rsp,%r12
    3588:	48 c7 04 24 00 00 00 	movq   $0x0,(%rsp)
    358f:	00 
    3590:	48 c7 44 24 08 00 00 	movq   $0x0,0x8(%rsp)
    3597:	00 00 
    3599:	66 c7 04 24 02 00    	movw   $0x2,(%rsp)
    359f:	48 63 50 14          	movslq 0x14(%rax),%rdx
    35a3:	48 8b 40 18          	mov    0x18(%rax),%rax
    35a7:	48 8b 30             	mov    (%rax),%rsi
    35aa:	48 8d 7c 24 04       	lea    0x4(%rsp),%rdi
    35af:	b9 0c 00 00 00       	mov    $0xc,%ecx
    35b4:	e8 87 dd ff ff       	callq  1340 <__memmove_chk@plt>
    35b9:	66 c7 44 24 02 3c 9a 	movw   $0x9a3c,0x2(%rsp)
    35c0:	ba 10 00 00 00       	mov    $0x10,%edx
    35c5:	4c 89 e6             	mov    %r12,%rsi
    35c8:	89 df                	mov    %ebx,%edi
    35ca:	e8 41 de ff ff       	callq  1410 <connect@plt>
    35cf:	85 c0                	test   %eax,%eax
    35d1:	0f 88 e7 00 00 00    	js     36be <init_driver+0x1b8>
    35d7:	89 df                	mov    %ebx,%edi
    35d9:	e8 22 dd ff ff       	callq  1300 <close@plt>
    35de:	66 c7 45 00 4f 4b    	movw   $0x4b4f,0x0(%rbp)
    35e4:	c6 45 02 00          	movb   $0x0,0x2(%rbp)
    35e8:	b8 00 00 00 00       	mov    $0x0,%eax
    35ed:	48 8b 4c 24 18       	mov    0x18(%rsp),%rcx
    35f2:	64 48 33 0c 25 28 00 	xor    %fs:0x28,%rcx
    35f9:	00 00 
    35fb:	0f 85 10 01 00 00    	jne    3711 <init_driver+0x20b>
    3601:	48 83 c4 20          	add    $0x20,%rsp
    3605:	5b                   	pop    %rbx
    3606:	5d                   	pop    %rbp
    3607:	41 5c                	pop    %r12
    3609:	c3                   	retq   
    360a:	48 b8 45 72 72 6f 72 	movabs $0x43203a726f727245,%rax
    3611:	3a 20 43 
    3614:	48 ba 6c 69 65 6e 74 	movabs $0x6e7520746e65696c,%rdx
    361b:	20 75 6e 
    361e:	48 89 45 00          	mov    %rax,0x0(%rbp)
    3622:	48 89 55 08          	mov    %rdx,0x8(%rbp)
    3626:	48 b8 61 62 6c 65 20 	movabs $0x206f7420656c6261,%rax
    362d:	74 6f 20 
    3630:	48 ba 63 72 65 61 74 	movabs $0x7320657461657263,%rdx
    3637:	65 20 73 
    363a:	48 89 45 10          	mov    %rax,0x10(%rbp)
    363e:	48 89 55 18          	mov    %rdx,0x18(%rbp)
    3642:	c7 45 20 6f 63 6b 65 	movl   $0x656b636f,0x20(%rbp)
    3649:	66 c7 45 24 74 00    	movw   $0x74,0x24(%rbp)
    364f:	b8 ff ff ff ff       	mov    $0xffffffff,%eax
    3654:	eb 97                	jmp    35ed <init_driver+0xe7>
    3656:	48 b8 45 72 72 6f 72 	movabs $0x44203a726f727245,%rax
    365d:	3a 20 44 
    3660:	48 ba 4e 53 20 69 73 	movabs $0x6e7520736920534e,%rdx
    3667:	20 75 6e 
    366a:	48 89 45 00          	mov    %rax,0x0(%rbp)
    366e:	48 89 55 08          	mov    %rdx,0x8(%rbp)
    3672:	48 b8 61 62 6c 65 20 	movabs $0x206f7420656c6261,%rax
    3679:	74 6f 20 
    367c:	48 ba 72 65 73 6f 6c 	movabs $0x2065766c6f736572,%rdx
    3683:	76 65 20 
    3686:	48 89 45 10          	mov    %rax,0x10(%rbp)
    368a:	48 89 55 18          	mov    %rdx,0x18(%rbp)
    368e:	48 b8 73 65 72 76 65 	movabs $0x6120726576726573,%rax
    3695:	72 20 61 
    3698:	48 89 45 20          	mov    %rax,0x20(%rbp)
    369c:	c7 45 28 64 64 72 65 	movl   $0x65726464,0x28(%rbp)
    36a3:	66 c7 45 2c 73 73    	movw   $0x7373,0x2c(%rbp)
    36a9:	c6 45 2e 00          	movb   $0x0,0x2e(%rbp)
    36ad:	89 df                	mov    %ebx,%edi
    36af:	e8 4c dc ff ff       	callq  1300 <close@plt>
    36b4:	b8 ff ff ff ff       	mov    $0xffffffff,%eax
    36b9:	e9 2f ff ff ff       	jmpq   35ed <init_driver+0xe7>
    36be:	48 b8 45 72 72 6f 72 	movabs $0x55203a726f727245,%rax
    36c5:	3a 20 55 
    36c8:	48 ba 6e 61 62 6c 65 	movabs $0x6f7420656c62616e,%rdx
    36cf:	20 74 6f 
    36d2:	48 89 45 00          	mov    %rax,0x0(%rbp)
    36d6:	48 89 55 08          	mov    %rdx,0x8(%rbp)
    36da:	48 b8 20 63 6f 6e 6e 	movabs $0x7463656e6e6f6320,%rax
    36e1:	65 63 74 
    36e4:	48 ba 20 74 6f 20 73 	movabs $0x76726573206f7420,%rdx
    36eb:	65 72 76 
    36ee:	48 89 45 10          	mov    %rax,0x10(%rbp)
    36f2:	48 89 55 18          	mov    %rdx,0x18(%rbp)
    36f6:	66 c7 45 20 65 72    	movw   $0x7265,0x20(%rbp)
    36fc:	c6 45 22 00          	movb   $0x0,0x22(%rbp)
    3700:	89 df                	mov    %ebx,%edi
    3702:	e8 f9 db ff ff       	callq  1300 <close@plt>
    3707:	b8 ff ff ff ff       	mov    $0xffffffff,%eax
    370c:	e9 dc fe ff ff       	jmpq   35ed <init_driver+0xe7>
    3711:	e8 aa db ff ff       	callq  12c0 <__stack_chk_fail@plt>

0000000000003716 <driver_post>:
    3716:	f3 0f 1e fa          	endbr64 
    371a:	53                   	push   %rbx
    371b:	4c 89 cb             	mov    %r9,%rbx
    371e:	45 85 c0             	test   %r8d,%r8d
    3721:	75 18                	jne    373b <driver_post+0x25>
    3723:	48 85 ff             	test   %rdi,%rdi
    3726:	74 05                	je     372d <driver_post+0x17>
    3728:	80 3f 00             	cmpb   $0x0,(%rdi)
    372b:	75 37                	jne    3764 <driver_post+0x4e>
    372d:	66 c7 03 4f 4b       	movw   $0x4b4f,(%rbx)
    3732:	c6 43 02 00          	movb   $0x0,0x2(%rbx)
    3736:	44 89 c0             	mov    %r8d,%eax
    3739:	5b                   	pop    %rbx
    373a:	c3                   	retq   
    373b:	48 89 ca             	mov    %rcx,%rdx
    373e:	48 8d 35 d4 10 00 00 	lea    0x10d4(%rip),%rsi        # 4819 <trans_char+0xc9>
    3745:	bf 01 00 00 00       	mov    $0x1,%edi
    374a:	b8 00 00 00 00       	mov    $0x0,%eax
    374f:	e8 5c dc ff ff       	callq  13b0 <__printf_chk@plt>
    3754:	66 c7 03 4f 4b       	movw   $0x4b4f,(%rbx)
    3759:	c6 43 02 00          	movb   $0x0,0x2(%rbx)
    375d:	b8 00 00 00 00       	mov    $0x0,%eax
    3762:	eb d5                	jmp    3739 <driver_post+0x23>
    3764:	48 83 ec 08          	sub    $0x8,%rsp
    3768:	41 51                	push   %r9
    376a:	49 89 c9             	mov    %rcx,%r9
    376d:	49 89 d0             	mov    %rdx,%r8
    3770:	48 89 f9             	mov    %rdi,%rcx
    3773:	48 89 f2             	mov    %rsi,%rdx
    3776:	be 9a 3c 00 00       	mov    $0x3c9a,%esi
    377b:	48 8d 3d 8d 0b 00 00 	lea    0xb8d(%rip),%rdi        # 430f <_IO_stdin_used+0x30f>
    3782:	e8 be f5 ff ff       	callq  2d45 <submitr>
    3787:	48 83 c4 10          	add    $0x10,%rsp
    378b:	eb ac                	jmp    3739 <driver_post+0x23>

000000000000378d <check>:
    378d:	f3 0f 1e fa          	endbr64 
    3791:	89 f8                	mov    %edi,%eax
    3793:	c1 e8 1c             	shr    $0x1c,%eax
    3796:	74 1d                	je     37b5 <check+0x28>
    3798:	b9 00 00 00 00       	mov    $0x0,%ecx
    379d:	83 f9 1f             	cmp    $0x1f,%ecx
    37a0:	7f 0d                	jg     37af <check+0x22>
    37a2:	89 f8                	mov    %edi,%eax
    37a4:	d3 e8                	shr    %cl,%eax
    37a6:	3c 0a                	cmp    $0xa,%al
    37a8:	74 11                	je     37bb <check+0x2e>
    37aa:	83 c1 08             	add    $0x8,%ecx
    37ad:	eb ee                	jmp    379d <check+0x10>
    37af:	b8 01 00 00 00       	mov    $0x1,%eax
    37b4:	c3                   	retq   
    37b5:	b8 00 00 00 00       	mov    $0x0,%eax
    37ba:	c3                   	retq   
    37bb:	b8 00 00 00 00       	mov    $0x0,%eax
    37c0:	c3                   	retq   

00000000000037c1 <gencookie>:
    37c1:	f3 0f 1e fa          	endbr64 
    37c5:	53                   	push   %rbx
    37c6:	83 c7 01             	add    $0x1,%edi
    37c9:	e8 a2 da ff ff       	callq  1270 <srandom@plt>
    37ce:	e8 ad db ff ff       	callq  1380 <random@plt>
    37d3:	48 89 c7             	mov    %rax,%rdi
    37d6:	89 c3                	mov    %eax,%ebx
    37d8:	e8 b0 ff ff ff       	callq  378d <check>
    37dd:	85 c0                	test   %eax,%eax
    37df:	74 ed                	je     37ce <gencookie+0xd>
    37e1:	89 d8                	mov    %ebx,%eax
    37e3:	5b                   	pop    %rbx
    37e4:	c3                   	retq   
    37e5:	66 2e 0f 1f 84 00 00 	nopw   %cs:0x0(%rax,%rax,1)
    37ec:	00 00 00 
    37ef:	90                   	nop

00000000000037f0 <__libc_csu_init>:
    37f0:	f3 0f 1e fa          	endbr64 
    37f4:	41 57                	push   %r15
    37f6:	4c 8d 3d bb 34 00 00 	lea    0x34bb(%rip),%r15        # 6cb8 <__frame_dummy_init_array_entry>
    37fd:	41 56                	push   %r14
    37ff:	49 89 d6             	mov    %rdx,%r14
    3802:	41 55                	push   %r13
    3804:	49 89 f5             	mov    %rsi,%r13
    3807:	41 54                	push   %r12
    3809:	41 89 fc             	mov    %edi,%r12d
    380c:	55                   	push   %rbp
    380d:	48 8d 2d ac 34 00 00 	lea    0x34ac(%rip),%rbp        # 6cc0 <__do_global_dtors_aux_fini_array_entry>
    3814:	53                   	push   %rbx
    3815:	4c 29 fd             	sub    %r15,%rbp
    3818:	48 83 ec 08          	sub    $0x8,%rsp
    381c:	e8 df d7 ff ff       	callq  1000 <_init>
    3821:	48 c1 fd 03          	sar    $0x3,%rbp
    3825:	74 1f                	je     3846 <__libc_csu_init+0x56>
    3827:	31 db                	xor    %ebx,%ebx
    3829:	0f 1f 80 00 00 00 00 	nopl   0x0(%rax)
    3830:	4c 89 f2             	mov    %r14,%rdx
    3833:	4c 89 ee             	mov    %r13,%rsi
    3836:	44 89 e7             	mov    %r12d,%edi
    3839:	41 ff 14 df          	callq  *(%r15,%rbx,8)
    383d:	48 83 c3 01          	add    $0x1,%rbx
    3841:	48 39 dd             	cmp    %rbx,%rbp
    3844:	75 ea                	jne    3830 <__libc_csu_init+0x40>
    3846:	48 83 c4 08          	add    $0x8,%rsp
    384a:	5b                   	pop    %rbx
    384b:	5d                   	pop    %rbp
    384c:	41 5c                	pop    %r12
    384e:	41 5d                	pop    %r13
    3850:	41 5e                	pop    %r14
    3852:	41 5f                	pop    %r15
    3854:	c3                   	retq   
    3855:	66 66 2e 0f 1f 84 00 	data16 nopw %cs:0x0(%rax,%rax,1)
    385c:	00 00 00 00 

0000000000003860 <__libc_csu_fini>:
    3860:	f3 0f 1e fa          	endbr64 
    3864:	c3                   	retq   

Disassembly of section .fini:

0000000000003868 <_fini>:
    3868:	f3 0f 1e fa          	endbr64 
    386c:	48 83 ec 08          	sub    $0x8,%rsp
    3870:	48 83 c4 08          	add    $0x8,%rsp
    3874:	c3                   	retq   
